(dp0
S'comment'
p1
S'stop words taken from http://www.matthewjockers.net/macroanalysisbook/expanded-stopwords-list'
p2
sS'stop_words'
p3
(lp4
V1
p5
aV2
p6
aV3
p7
aV4
p8
aV5
p9
aV6
p10
aV7
p11
aV8
p12
aV9
p13
aVa
p14
aVaaron
p15
aVabbey
p16
aVabbie
p17
aVabdul
p18
aVabe
p19
aVacross
p20
aVabel
p21
aVabigail
p22
aVabout
p23
aVabove
p24
aVabraham
p25
aVabram
p26
aVabst
p27
aVaccordance
p28
aVaccording
p29
aVact
p30
aVactually
p31
aVada
p32
aVadah
p33
aVadalberto
p34
aVadaline
p35
aVadam
p36
aVadan
p37
aVadded
p38
aVamong
p39
aVaddie
p40
aVadela
p41
aVadelaida
p42
aVadelaide
p43
aVadele
p44
aVadelia
p45
aVadelina
p46
aVadeline
p47
aVadell
p48
aVadella
p49
aVadelle
p50
aVadena
p51
aVadina
p52
aVadj
p53
aVadolfo
p54
aVadolph
p55
aVadopted
p56
aVadria
p57
aVadrian
p58
aVadriana
p59
aVadriane
p60
aVadrianna
p61
aVadrien
p62
aVadrienne
p63
aVafter
p64
aVafterwards
p65
aVafton
p66
aVagain
p67
aVagainst
p68
aVagatha
p69
aVagnes
p70
aVagnus
p71
aVagueda
p72
aVagustina
p73
aVahmad
p74
aVahmed
p75
aVai
p76
aVaida
p77
aVbesides
p78
aVaide
p79
aVaiko
p80
aVaileen
p81
aVailene
p82
aVaimee
p83
aVaja
p84
aVakilah
p85
aVal
p86
aValaina
p87
aValaine
p88
aValan
p89
aValana
p90
aValane
p91
aValanna
p92
aValayna
p93
aValba
p94
aValbert
p95
aValberta
p96
aValbertha
p97
aValbertina
p98
aValbertine
p99
aValberto
p100
aValbina
p101
aValda
p102
aValden
p103
aValdo
p104
aValease
p105
aValec
p106
aValecia
p107
aVe
p108
aValeen
p109
aValeisha
p110
aVeg
p111
aValejandra
p112
aValejandrina
p113
aValejandro
p114
aValena
p115
aVelsewhere
p116
aValene
p117
aValesha
p118
aValeshia
p119
aValesia
p120
aValessandra
p121
aValeta
p122
aValetha
p123
aVeverywhere
p124
aValethea
p125
aValethia
p126
aValex
p127
aValexander
p128
aValexandria
p129
aValexia
p130
aValexis
p131
aValfonso
p132
aValfonzo
p133
aValfred
p134
aValfreda
p135
aValfredia
p136
aValfredo
p137
aVali
p138
aValia
p139
aValica
p140
aValice
p141
aValicia
p142
aValida
p143
aValina
p144
aValisa
p145
aValise
p146
aVhad
p147
aValisha
p148
aValishia
p149
aValisia
p150
aValison
p151
aValissa
p152
aValita
p153
aValix
p154
aValiza
p155
aVall
p156
aValla
p157
aVallan
p158
aValleen
p159
aVallegra
p160
aVallen
p161
aVallena
p162
aVallene
p163
aVallie
p164
aValline
p165
aVallison
p166
aVallyn
p167
aVallyson
p168
aValma
p169
aVhop
p170
aValmeda
p171
aValmeta
p172
aValmost
p173
aValona
p174
aValone
p175
aValong
p176
aValonso
p177
aValonzo
p178
aValpha
p179
aValphonse
p180
aValphonso
p181
aValready
p182
aValso
p183
aValta
p184
aValtagracia
p185
aValtha
p186
aValthea
p187
aValthough
p188
aValton
p189
aValva
p190
aValvaro
p191
aValvera
p192
aValverta
p193
aValvin
p194
aValvina
p195
aValways
p196
aValyce
p197
aValycia
p198
aValysa
p199
aValyse
p200
aValysha
p201
aValysia
p202
aValyson
p203
aValyssa
p204
aVam
p205
aVamado
p206
aVamal
p207
aVamalia
p208
aVamanda
p209
aVamber
p210
aVamberly
p211
aVambrose
p212
aVamee
p213
aVamelia
p214
aVlong
p215
aVamerica
p216
aVm
p217
aVami
p218
aVamie
p219
aVamiee
p220
aVamina
p221
aVmay
p222
aVamira
p223
aVammie
p224
aVamongst
p225
aVamos
p226
aVmight
p227
aVamparo
p228
aVamy
p229
aVan
p230
aVana
p231
aVanabel
p232
aVanamaria
p233
aVanastacia
p234
aVanastasia
p235
aVand
p236
aVandera
p237
aVanderson
p238
aVandra
p239
aVandre
p240
aVna
p241
aVandrea
p242
aVandreas
p243
aVandres
p244
aVandrew
p245
aVandria
p246
aVandy
p247
aVanette
p248
aVangel
p249
aVangela
p250
aVangele
p251
aVangelena
p252
aVangeles
p253
aVangelia
p254
aVangelic
p255
aVangelica
p256
aVangelina
p257
aVangeline
p258
aVangelique
p259
aVangelita
p260
aVangella
p261
aVangelo
p262
aVangelyn
p263
aVangie
p264
aVangila
p265
aVangla
p266
aVangle
p267
aVanglea
p268
aVanh
p269
aVanibal
p270
aVanika
p271
aVanisha
p272
aVanissa
p273
aVanita
p274
aVanitra
p275
aVanjanette
p276
aVanjelica
p277
aVann
p278
aVanna
p279
aVannabel
p280
aVannabell
p281
aVannabelle
p282
aVoverall
p283
aVannalee
p284
aVannalisa
p285
aVannamae
p286
aVannamaria
p287
aVannamarie
p288
aVanne
p289
aVanneliese
p290
aVannelle
p291
aVannemarie
p292
aVput
p293
aVannetta
p294
aVannice
p295
aVannie
p296
aVrather
p297
aVannika
p298
aVannis
p299
aVannmarie
p300
aVannounce
p301
aVanother
p302
aVanswered
p303
aVanthony
p304
aVantione
p305
aVantionette
p306
aVantoine
p307
aVanton
p308
aVantone
p309
aVantonetta
p310
aVantonette
p311
aVantonia
p312
aVantonietta
p313
aVantonina
p314
aVantonio
p315
aVantony
p316
aVantwan
p317
aVany
p318
aVanya
p319
aVanyhow
p320
aVanyone
p321
aVanything
p322
aVanywhere
p323
aVapolonia
p324
aVapril
p325
aVapryl
p326
aVara
p327
aVshould
p328
aVaraceli
p329
aVaracelis
p330
aVaracely
p331
aVarcelia
p332
aVarchie
p333
aVardath
p334
aVardelia
p335
aVardell
p336
aVardella
p337
aVardelle
p338
aVarden
p339
aVardis
p340
aVardith
p341
aVare
p342
aVaren
p343
aVarent
p344
aVaretha
p345
aVargelia
p346
aVargentina
p347
aVariana
p348
aVarianna
p349
aVarianne
p350
aVarica
p351
aVarie
p352
aVariel
p353
aVarielle
p354
aVarla
p355
aVarlean
p356
aVarleen
p357
aVarlen
p358
aVthere
p359
aVarlena
p360
aVarlene
p361
aVarletha
p362
aVarletta
p363
aVarlette
p364
aVarlie
p365
aVarlinda
p366
aVarline
p367
aVarlyne
p368
aVarmand
p369
aVarmanda
p370
aVthey
p371
aVarmandina
p372
aVarmando
p373
aVarmida
p374
aVarminda
p375
aVarnetta
p376
aVarnette
p377
aVarnita
p378
aVarnold
p379
aVarnoldo
p380
aVarnulfo
p381
aVaround
p382
aVarron
p383
aVthree
p384
aVart
p385
aVarthur
p386
aVartie
p387
aVarturo
p388
aVarvilla
p389
aVas
p390
aVasa
p391
aVasha
p392
aVashanti
p393
aVashely
p394
aVashlea
p395
aVtoward
p396
aVashlee
p397
aVashleigh
p398
aVashley
p399
aVashli
p400
aVashlie
p401
aVashly
p402
aVashlyn
p403
aVasia
p404
aVask
p405
aVunlikely
p406
aVasked
p407
aVasley
p408
aVassunta
p409
aVastrid
p410
aVups
p411
aVat
p412
aVathena
p413
aVaubrey
p414
aVaudie
p415
aVaudra
p416
aVaudrea
p417
aVaudrey
p418
aVaudria
p419
aVaudrie
p420
aVaudry
p421
aVaugust
p422
aVaugusta
p423
aVaugustina
p424
aVaugustine
p425
aVaugustus
p426
aVaundrea
p427
aVaura
p428
aVaurea
p429
aVaurelia
p430
aVaurelio
p431
aVaurora
p432
aVaurore
p433
aVaustin
p434
aVauth
p435
aVautumn
p436
aVava
p437
aVavailable
p438
aVavelina
p439
aVavery
p440
aVavis
p441
aVavril
p442
aVawilda
p443
aVayako
p444
aVayana
p445
aVayanna
p446
aVayesha
p447
aVazalee
p448
aVazucena
p449
aVazzie
p450
aVb
p451
aVbabara
p452
aVbabette
p453
aVback
p454
aVbailey
p455
aVbambi
p456
aVbao
p457
aVbarabara
p458
aVbarb
p459
aVbarbara
p460
aVbarbera
p461
aVbarbie
p462
aVbarbra
p463
aVbari
p464
aVbarney
p465
aVbarrett
p466
aVbarrie
p467
aVbart
p468
aVbasil
p469
aVwould
p470
aVbasilia
p471
aVbe
p472
aVbea
p473
aVbeata
p474
aVbeatrice
p475
aVbeatris
p476
aVbeatriz
p477
aVbeau
p478
aVbeaulah
p479
aVbebe
p480
aVbecame
p481
aVbecause
p482
aVbecki
p483
aVbecky
p484
aVbecome
p485
aVbecomes
p486
aVbecoming
p487
aVbee
p488
aVabby
p489
aVbeen
p490
aVbefore
p491
aVbeforehand
p492
aVbegin
p493
aVbeginning
p494
aVbehind
p495
aVbeing
p496
aVbelen
p497
aVbelia
p498
aVbelinda
p499
aVbelkis
p500
aVbell
p501
aVbella
p502
aVbelle
p503
aVbelow
p504
aVben
p505
aVbenedict
p506
aVbenita
p507
aVbenito
p508
aVbenjamin
p509
aVbennett
p510
aVbenny
p511
aVbenton
p512
aVberenice
p513
aVberna
p514
aVbernadette
p515
aVbernadine
p516
aVbernard
p517
aVbernarda
p518
aVbernardina
p519
aVbernardine
p520
aVbernardo
p521
aVadrianne
p522
aVberneice
p523
aVadriene
p524
aVbernice
p525
aVbernie
p526
aVberniece
p527
aVbernita
p528
aVbert
p529
aVagripina
p530
aVberta
p531
aVagustin
p532
aVbertha
p533
aVbertie
p534
aVbertram
p535
aVberyl
p536
aVbeside
p537
aVbess
p538
aVbessie
p539
aVbest
p540
aVbeth
p541
aVbethanie
p542
aVaisha
p543
aVbethann
p544
aVakiko
p545
aVbethany
p546
aVbethel
p547
aVbetsey
p548
aVbette
p549
aVbetter
p550
aVbettie
p551
aVbettina
p552
aVbetty
p553
aVbettyann
p554
aVbettye
p555
aVbetween
p556
aVbeula
p557
aVbeulah
p558
aVbev
p559
aVbeverlee
p560
aVbeverley
p561
aVbeverly
p562
aVbeyond
p563
aVbianca
p564
aVbibi
p565
aVbill
p566
aVbillie
p567
aVbilly
p568
aVbillye
p569
aValeida
p570
aVbirdie
p571
aVbirgit
p572
aVblaine
p573
aVblair
p574
aVblake
p575
aVblanca
p576
aVblanch
p577
aVblanche
p578
aVblondell
p579
aVblossom
p580
aVblythe
p581
aVbo
p582
aVbobbi
p583
aVbobbie
p584
aVbobbye
p585
aValexa
p586
aVbok
p587
aValexandra
p588
aVbong
p589
aVbonita
p590
aVbonnie
p591
aVbonny
p592
aVbooker
p593
aVboris
p594
aVboth
p595
aVboyce
p596
aVboyd
p597
aVbrad
p598
aVbradford
p599
aVbradley
p600
aVbradly
p601
aVbrady
p602
aVbrain
p603
aVbranda
p604
aValine
p605
aVbrande
p606
aVbrandee
p607
aVbranden
p608
aVbrandi
p609
aVbrandon
p610
aVbrandy
p611
aVbrant
p612
aVbreana
p613
aVbreann
p614
aVbreanna
p615
aVbreanne
p616
aVbree
p617
aVbrenda
p618
aVbrendan
p619
aVbrendon
p620
aVbrenna
p621
aVbrent
p622
aVbrenton
p623
aVbret
p624
aVbrett
p625
aVbrian
p626
aVbriana
p627
aVbrianne
p628
aVbrice
p629
aVbridget
p630
aVbridgett
p631
aVbridgette
p632
aVbrigette
p633
aVbrigid
p634
aVbrigida
p635
aVbrigitte
p636
aVbrinda
p637
aVbritany
p638
aVbritney
p639
aVbritni
p640
aVbritt
p641
aVbritta
p642
aVbrittaney
p643
aVbrittani
p644
aVbrittanie
p645
aVbritteny
p646
aVbrittni
p647
aVbrittny
p648
aVbrock
p649
aVbroderick
p650
aVbronwyn
p651
aVbrook
p652
aVbrooke
p653
aVbrooks
p654
aVbruce
p655
aVamada
p656
aVbruna
p657
aVbrunilda
p658
aVbruno
p659
aVbryan
p660
aVbryanna
p661
aVbryant
p662
aVbryce
p663
aVbrynn
p664
aVbryon
p665
aVbud
p666
aVbuddy
p667
aVbuena
p668
aVbuffy
p669
aVbuford
p670
aVbula
p671
aVbunny
p672
aVburl
p673
aVburma
p674
aVburt
p675
aVburton
p676
aVbuster
p677
aVbut
p678
aVanalisa
p679
aVby
p680
aVbyron
p681
aVc
p682
aVca
p683
aVcaitlin
p684
aVcaitlyn
p685
aVcalandra
p686
aVcaleb
p687
aVcalista
p688
aVandree
p689
aVcallie
p690
aVcalvin
p691
aVcamelia
p692
aVcamellia
p693
aVcameron
p694
aVcamie
p695
aVcamila
p696
aVcamilla
p697
aVcamille
p698
aVcammy
p699
aVcan
p700
aVcandace
p701
aVcandance
p702
aVangelika
p703
aVcandelaria
p704
aVcandi
p705
aVcandice
p706
aVcandida
p707
aVcandis
p708
aVcandy
p709
aVcandyce
p710
aVcannot
p711
aVcant
p712
aVcaprice
p713
aVcaption
p714
aVcara
p715
aVcaren
p716
aVcarey
p717
aVcari
p718
aVanisa
p719
aVcaridad
p720
aVcarie
p721
aVcarina
p722
aVcarisa
p723
aVanja
p724
aVcarissa
p725
aVcarita
p726
aVcarl
p727
aVcarla
p728
aVcarlee
p729
aVcarleen
p730
aVcarlena
p731
aVcarlene
p732
aVcarletta
p733
aVcarley
p734
aVcarli
p735
aVcarline
p736
aVcarlita
p737
aVcarlo
p738
aVcarlos
p739
aVcarlota
p740
aVannett
p741
aVcarlotta
p742
aVannette
p743
aVcarlton
p744
aVcarly
p745
aVcarlyn
p746
aVcarma
p747
aVannita
p748
aVcarman
p749
aVcarmel
p750
aVcarmela
p751
aVcarmelia
p752
aVcarmelina
p753
aVantoinette
p754
aVcarmelita
p755
aVcarmella
p756
aVcarmelo
p757
aVcarmen
p758
aVcarmina
p759
aVcarmine
p760
aVcarmon
p761
aVcarol
p762
aVcarola
p763
aVcarolann
p764
aVcarole
p765
aVcarolee
p766
aVcarolin
p767
aVcaroline
p768
aVcaroll
p769
aVcarolyn
p770
aVcarolyne
p771
aVcarolynn
p772
aVcaron
p773
aVcaroyln
p774
aVcarri
p775
aVcarrie
p776
aVcarrol
p777
aVcarry
p778
aVcarson
p779
aVcary
p780
aVcaryl
p781
aVcarylon
p782
aVcaryn
p783
aVcasandra
p784
aVcasey
p785
aVcasie
p786
aVariane
p787
aVcasimira
p788
aVcassandra
p789
aVcassaundra
p790
aVcassey
p791
aVcassidy
p792
aVcassie
p793
aVcassondra
p794
aVcassy
p795
aVcatalina
p796
aVcatarina
p797
aVcaterina
p798
aVcatharine
p799
aVcatherin
p800
aVcatherina
p801
aVcatherine
p802
aVcathern
p803
aVcatheryn
p804
aVcathey
p805
aVcathi
p806
aVcathie
p807
aVcathleen
p808
aVcathrine
p809
aVcathryn
p810
aVcathy
p811
aVcatina
p812
aVcatrice
p813
aVcatrina
p814
aVcayla
p815
aVcecil
p816
aVcecila
p817
aVcecile
p818
aVaron
p819
aVcecilia
p820
aVcecille
p821
aVcecily
p822
aVcedric
p823
aVcedrick
p824
aVcelena
p825
aVcelesta
p826
aVceleste
p827
aVcelestina
p828
aVcelestine
p829
aVcelia
p830
aVcelina
p831
aVcelinda
p832
aVceline
p833
aVcelsa
p834
aVceola
p835
aVcesar
p836
aVchad
p837
aVashton
p838
aVchadwick
p839
aVchae
p840
aVchan
p841
aVchana
p842
aVasuncion
p843
aVchance
p844
aVchanda
p845
aVchandra
p846
aVchanel
p847
aVchanell
p848
aVchanelle
p849
aVchang
p850
aVchantal
p851
aVchantay
p852
aVchante
p853
aVchantel
p854
aVchantell
p855
aVchantelle
p856
aVchapter
p857
aVchara
p858
aVcharis
p859
aVcharise
p860
aVcharissa
p861
aVcharisse
p862
aVcharita
p863
aVcharity
p864
aVcharla
p865
aVcharlena
p866
aVcharlene
p867
aVcharles
p868
aVcharlesetta
p869
aVcharlette
p870
aVcharley
p871
aVcharlie
p872
aVcharline
p873
aVcharlott
p874
aVcharlotte
p875
aVcharlsie
p876
aVcharlyn
p877
aVcharmaine
p878
aVcharolette
p879
aVchase
p880
aVchasidy
p881
aVchasity
p882
aVchastity
p883
aVchau
p884
aVchauncey
p885
aVchaya
p886
aVbarbar
p887
aVchelsea
p888
aVchelsey
p889
aVchelsie
p890
aVcher
p891
aVchere
p892
aVcheree
p893
aVcherelle
p894
aVcheri
p895
aVbarry
p896
aVcherie
p897
aVbarton
p898
aVcherilyn
p899
aVcherish
p900
aVcherlyn
p901
aVcherri
p902
aVcherrie
p903
aVcherry
p904
aVcherryl
p905
aVchery
p906
aVcheryl
p907
aVcheryle
p908
aVcheryll
p909
aVbeckie
p910
aVchester
p911
aVchet
p912
aVcheyenne
p913
aVchi
p914
aVchia
p915
aVchieko
p916
aVchin
p917
aVchina
p918
aVching
p919
aVbelva
p920
aVchiquita
p921
aVchloe
p922
aVchong
p923
aVchris
p924
aVchrissy
p925
aVchrista
p926
aVbennie
p927
aVchristal
p928
aVchristeen
p929
aVchristel
p930
aVchristen
p931
aVchristene
p932
aVchristi
p933
aVchristia
p934
aVchristian
p935
aVchristiana
p936
aVchristiane
p937
aVchristie
p938
aVchristin
p939
aVbernetta
p940
aVchristina
p941
aVchristine
p942
aVchristinia
p943
aVchristoper
p944
aVberry
p945
aVchristopher
p946
aVchristy
p947
aVchrystal
p948
aVchu
p949
aVchuck
p950
aVchun
p951
aVchung
p952
aVcicely
p953
aVciera
p954
aVcierra
p955
aVcinda
p956
aVcinderella
p957
aVcindi
p958
aVcindy
p959
aVbetsy
p960
aVcinthia
p961
aVcira
p962
aVclair
p963
aVclara
p964
aVclare
p965
aVclarence
p966
aVclaretha
p967
aVclaretta
p968
aVclaribel
p969
aVclarice
p970
aVclarine
p971
aVclaris
p972
aVclarisa
p973
aVclarissa
p974
aVclarita
p975
aVbilli
p976
aVclark
p977
aVclassie
p978
aVclaud
p979
aVclaude
p980
aVclaudette
p981
aVclaudia
p982
aVclaudie
p983
aVclaudine
p984
aVclaudio
p985
aVclay
p986
aVclayton
p987
aVclemencia
p988
aVclement
p989
aVclemente
p990
aVclementina
p991
aVbob
p992
aVclementine
p993
aVclemmie
p994
aVbobby
p995
aVcleo
p996
aVbobette
p997
aVcleopatra
p998
aVcleora
p999
aVcleotilde
p1000
aVcleta
p1001
aVcletus
p1002
aVcleveland
p1003
aVcliff
p1004
aVclifford
p1005
aVclifton
p1006
aVclint
p1007
aVclinton
p1008
aVclora
p1009
aVclorinda
p1010
aVclotilde
p1011
aVclyde
p1012
aVco
p1013
aVcodi
p1014
aVcody
p1015
aVcolby
p1016
aVcoleen
p1017
aVbrandie
p1018
aVcoleman
p1019
aVcolene
p1020
aVcoletta
p1021
aVcolette
p1022
aVcolin
p1023
aVcolleen
p1024
aVcollen
p1025
aVcollene
p1026
aVcollette
p1027
aVcollin
p1028
aVcolumbus
p1029
aVcome
p1030
aVconcepcion
p1031
aVconception
p1032
aVconcetta
p1033
aVconcha
p1034
aVconchita
p1035
aVconnie
p1036
aVbrianna
p1037
aVconrad
p1038
aVconstance
p1039
aVconsuela
p1040
aVconsuelo
p1041
aVcontessa
p1042
aVcora
p1043
aVcoral
p1044
aVcoralee
p1045
aVcoralie
p1046
aVcorazon
p1047
aVcordelia
p1048
aVcordell
p1049
aVcordia
p1050
aVcordie
p1051
aVcoreen
p1052
aVcorene
p1053
aVcoretta
p1054
aVcorey
p1055
aVbrittany
p1056
aVcorie
p1057
aVbrittney
p1058
aVcorina
p1059
aVcorine
p1060
aVcorinna
p1061
aVcorinne
p1062
aVcorliss
p1063
aVcornelia
p1064
aVcornelius
p1065
aVcornell
p1066
aVcorrie
p1067
aVcorrin
p1068
aVcorrina
p1069
aVcorrine
p1070
aVcorrinne
p1071
aVcortez
p1072
aVcortney
p1073
aVcould
p1074
aVcouldnt
p1075
aVcourtney
p1076
aVbuck
p1077
aVcoy
p1078
aVcraig
p1079
aVcreola
p1080
aVcried
p1081
aVcris
p1082
aVcriselda
p1083
aVbulah
p1084
aVcrissy
p1085
aVcrista
p1086
aVcristal
p1087
aVcristen
p1088
aVcristi
p1089
aVcristie
p1090
aVcristin
p1091
aVcristina
p1092
aVcristine
p1093
aVcristobal
p1094
aVcristopher
p1095
aVcristy
p1096
aVcruz
p1097
aVcrysta
p1098
aVcrystal
p1099
aVcrystle
p1100
aVcuc
p1101
aVcami
p1102
aVcurt
p1103
aVcurtis
p1104
aVcyndi
p1105
aVcyndy
p1106
aVcammie
p1107
aVcynthia
p1108
aVcyril
p1109
aVcyrstal
p1110
aVcyrus
p1111
aVcythia
p1112
aVd
p1113
aVdacia
p1114
aVcandie
p1115
aVdagmar
p1116
aVcandra
p1117
aVdagny
p1118
aVdahlia
p1119
aVdaina
p1120
aVdaine
p1121
aVdaisey
p1122
aVdaisy
p1123
aVdakota
p1124
aVdale
p1125
aVdalene
p1126
aVcarin
p1127
aVdalia
p1128
aVdalila
p1129
aVdallas
p1130
aVdalton
p1131
aVdamaris
p1132
aVdamian
p1133
aVdamien
p1134
aVdamion
p1135
aVdamon
p1136
aVdan
p1137
aVdana
p1138
aVdanae
p1139
aVdane
p1140
aVcarlie
p1141
aVdanelle
p1142
aVdanette
p1143
aVdani
p1144
aVdanial
p1145
aVdanica
p1146
aVdaniel
p1147
aVdaniela
p1148
aVdaniele
p1149
aVdaniell
p1150
aVdaniella
p1151
aVdanielle
p1152
aVdanika
p1153
aVdanille
p1154
aVdanilo
p1155
aVdanita
p1156
aVdann
p1157
aVdanna
p1158
aVdannette
p1159
aVdannie
p1160
aVdannielle
p1161
aVdanny
p1162
aVdanuta
p1163
aVdanyel
p1164
aVdanyell
p1165
aVdanyelle
p1166
aVdaphine
p1167
aVdara
p1168
aVdarby
p1169
aVcarolina
p1170
aVdarcel
p1171
aVdarcey
p1172
aVdarci
p1173
aVdarcie
p1174
aVdarcy
p1175
aVdarell
p1176
aVdaren
p1177
aVdaria
p1178
aVdarin
p1179
aVdario
p1180
aVcarroll
p1181
aVdarius
p1182
aVdarla
p1183
aVcarter
p1184
aVdarleen
p1185
aVdarlena
p1186
aVdarlene
p1187
aVdarline
p1188
aVdarnell
p1189
aVdaron
p1190
aVdarrel
p1191
aVdarrell
p1192
aVdarren
p1193
aVdarrick
p1194
aVdarrin
p1195
aVcassi
p1196
aVdarron
p1197
aVdarryl
p1198
aVdarwin
p1199
aVdaryl
p1200
aVdate
p1201
aVdave
p1202
aVdavid
p1203
aVdavida
p1204
aVdavina
p1205
aVdavis
p1206
aVdawn
p1207
aVdawna
p1208
aVdawne
p1209
aVdayle
p1210
aVdayna
p1211
aVdaysi
p1212
aVdeadra
p1213
aVdean
p1214
aVdeana
p1215
aVdeandra
p1216
aVdeandre
p1217
aVdeandrea
p1218
aVdeane
p1219
aVdeangelo
p1220
aVcecelia
p1221
aVdeann
p1222
aVdeanna
p1223
aVdeanne
p1224
aVdeb
p1225
aVdebbi
p1226
aVdebbie
p1227
aVdebbra
p1228
aVdebby
p1229
aVdebera
p1230
aVdebi
p1231
aVdebora
p1232
aVdeborah
p1233
aVdebra
p1234
aVdebrah
p1235
aVdebroah
p1236
aVdede
p1237
aVdedra
p1238
aVdee
p1239
aVdeeann
p1240
aVdeeanna
p1241
aVdeedee
p1242
aVdeena
p1243
aVdeetta
p1244
aVdeidra
p1245
aVdeidre
p1246
aVdeirdre
p1247
aVdeja
p1248
aVdel
p1249
aVdelana
p1250
aVdelbert
p1251
aVdelcie
p1252
aVdelena
p1253
aVdelfina
p1254
aVdelia
p1255
aVdelicia
p1256
aVdelila
p1257
aVdelilah
p1258
aVdelinda
p1259
aVdelisa
p1260
aVdell
p1261
aVdella
p1262
aVdelma
p1263
aVdelmar
p1264
aVdelmer
p1265
aVdelmy
p1266
aVdelois
p1267
aVcharleen
p1268
aVdeloise
p1269
aVdelora
p1270
aVdeloras
p1271
aVdelores
p1272
aVdeloris
p1273
aVdelorse
p1274
aVdelpha
p1275
aVdelphia
p1276
aVdelphine
p1277
aVdelsie
p1278
aVdelta
p1279
aVdemarcus
p1280
aVcharmain
p1281
aVdemetra
p1282
aVdemetria
p1283
aVchas
p1284
aVdemetrice
p1285
aVdemetrius
p1286
aVdena
p1287
aVchassidy
p1288
aVdenae
p1289
aVdeneen
p1290
aVdenese
p1291
aVdenice
p1292
aVdenis
p1293
aVdenise
p1294
aVdenisha
p1295
aVdenita
p1296
aVdenna
p1297
aVdennis
p1298
aVdennise
p1299
aVdenny
p1300
aVdenver
p1301
aVdenyse
p1302
aVcherise
p1303
aVdeon
p1304
aVcherly
p1305
aVdeonna
p1306
aVderek
p1307
aVderick
p1308
aVderrick
p1309
aVdeshawn
p1310
aVdesirae
p1311
aVdesire
p1312
aVdesiree
p1313
aVdespina
p1314
aVdessie
p1315
aVdestiny
p1316
aVdetra
p1317
aVdevin
p1318
aVdevon
p1319
aVdevona
p1320
aVdevora
p1321
aVdevorah
p1322
aVdewayne
p1323
aVdewey
p1324
aVdewitt
p1325
aVdexter
p1326
aVdia
p1327
aVdiamond
p1328
aVdian
p1329
aVdiana
p1330
aVdiane
p1331
aVdiann
p1332
aVdianna
p1333
aVchristena
p1334
aVdianne
p1335
aVdick
p1336
aVdid
p1337
aVdidnt
p1338
aVdiedra
p1339
aVdiedre
p1340
aVdiego
p1341
aVdierdre
p1342
aVdigna
p1343
aVdillon
p1344
aVdimple
p1345
aVdina
p1346
aVdinah
p1347
aVdino
p1348
aVdinorah
p1349
aVdion
p1350
aVdione
p1351
aVdionna
p1352
aVdionne
p1353
aVciara
p1354
aVdirk
p1355
aVdivina
p1356
aVdixie
p1357
aVdo
p1358
aVdodie
p1359
aVdoes
p1360
aVcindie
p1361
aVdoesnt
p1362
aVdollie
p1363
aVdolly
p1364
aVdolores
p1365
aVclaire
p1366
aVdoloris
p1367
aVdomenic
p1368
aVdomenica
p1369
aVdominga
p1370
aVdomingo
p1371
aVdominic
p1372
aVdominica
p1373
aVclarinda
p1374
aVdominick
p1375
aVdominique
p1376
aVdominque
p1377
aVdomitila
p1378
aVdomonique
p1379
aVdon
p1380
aVdona
p1381
aVdonald
p1382
aVdonella
p1383
aVdonetta
p1384
aVdonette
p1385
aVdong
p1386
aVdonita
p1387
aVdonn
p1388
aVdonna
p1389
aVdonnell
p1390
aVclelia
p1391
aVdonnetta
p1392
aVdonnette
p1393
aVdonnie
p1394
aVdonny
p1395
aVdonovan
p1396
aVdont
p1397
aVdonte
p1398
aVdonya
p1399
aVdora
p1400
aVdorathy
p1401
aVdorcas
p1402
aVdoreatha
p1403
aVdoreen
p1404
aVdorene
p1405
aVdoretha
p1406
aVdorethea
p1407
aVdoretta
p1408
aVdori
p1409
aVdoria
p1410
aVdorian
p1411
aVdorie
p1412
aVdorinda
p1413
aVdorine
p1414
aVdoris
p1415
aVdorla
p1416
aVcole
p1417
aVdorotha
p1418
aVdorothea
p1419
aVdorothy
p1420
aVdorris
p1421
aVdorsey
p1422
aVdortha
p1423
aVdorthea
p1424
aVdorthey
p1425
aVdorthy
p1426
aVdot
p1427
aVdotty
p1428
aVcolton
p1429
aVdoug
p1430
aVdouglas
p1431
aVdouglass
p1432
aVdovie
p1433
aVdown
p1434
aVdoyle
p1435
aVdreama
p1436
aVdrew
p1437
aVdrucilla
p1438
aVduane
p1439
aVdudley
p1440
aVdulcie
p1441
aVdung
p1442
aVduring
p1443
aVdusti
p1444
aVdustin
p1445
aVdusty
p1446
aVdwana
p1447
aVdwayne
p1448
aVdwight
p1449
aVdylan
p1450
aVeach
p1451
aVearl
p1452
aVearle
p1453
aVearlean
p1454
aVcori
p1455
aVearleen
p1456
aVearlene
p1457
aVearlie
p1458
aVearline
p1459
aVearnest
p1460
aVearnestine
p1461
aVeartha
p1462
aVeaster
p1463
aVeboni
p1464
aVebonie
p1465
aVebony
p1466
aVecho
p1467
aVed
p1468
aVedda
p1469
aVeddie
p1470
aVcory
p1471
aVeddy
p1472
aVedelmira
p1473
aVeden
p1474
aVedgardo
p1475
aVedie
p1476
aVedith
p1477
aVedmond
p1478
aVedmund
p1479
aVedmundo
p1480
aVedna
p1481
aVedra
p1482
aVedris
p1483
aVeduardo
p1484
aVedward
p1485
aVedwardo
p1486
aVedwin
p1487
aVedyth
p1488
aVedythe
p1489
aVeffie
p1490
aVefrain
p1491
aVefren
p1492
aVehtel
p1493
aVeight
p1494
aVeighty
p1495
aVeilene
p1496
aVeither
p1497
aVela
p1498
aVeladia
p1499
aVelaina
p1500
aVelaine
p1501
aVelana
p1502
aVelane
p1503
aVelanor
p1504
aVelayne
p1505
aVelba
p1506
aVelda
p1507
aVelden
p1508
aVeldon
p1509
aVeldora
p1510
aVeldridge
p1511
aVeleanor
p1512
aVeleanora
p1513
aVeleanore
p1514
aVelease
p1515
aVelena
p1516
aVelene
p1517
aVeleni
p1518
aVelenor
p1519
aVelenora
p1520
aVeleonor
p1521
aVeleonora
p1522
aVeleonore
p1523
aVelfreda
p1524
aVelfrieda
p1525
aVelfriede
p1526
aVeli
p1527
aVelia
p1528
aVeliana
p1529
aVelias
p1530
aVdania
p1531
aVelicia
p1532
aVelida
p1533
aVelidia
p1534
aVelijah
p1535
aVelina
p1536
aVelinor
p1537
aVelinore
p1538
aVelisa
p1539
aVelisabeth
p1540
aVelise
p1541
aVeliseo
p1542
aVelisha
p1543
aVelissa
p1544
aVeliz
p1545
aVeliza
p1546
aVelizabeth
p1547
aVelizbeth
p1548
aVelizebeth
p1549
aVdante
p1550
aVelke
p1551
aVella
p1552
aVellamae
p1553
aVellan
p1554
aVellen
p1555
aVdaphne
p1556
aVellena
p1557
aVelli
p1558
aVellie
p1559
aVelliot
p1560
aVelliott
p1561
aVellis
p1562
aVellsworth
p1563
aVelly
p1564
aVellyn
p1565
aVelma
p1566
aVelmer
p1567
aVelmira
p1568
aVelmo
p1569
aVelna
p1570
aVelnora
p1571
aVelodia
p1572
aVelois
p1573
aVeloisa
p1574
aVeloise
p1575
aVelouise
p1576
aVeloy
p1577
aVelroy
p1578
aVelsa
p1579
aVelse
p1580
aVelsie
p1581
aVelsy
p1582
aVelton
p1583
aVelva
p1584
aVelvera
p1585
aVelvia
p1586
aVelvie
p1587
aVelvina
p1588
aVelvira
p1589
aVelvis
p1590
aVelwanda
p1591
aVelwood
p1592
aVelyse
p1593
aVelza
p1594
aVema
p1595
aVemanuel
p1596
aVemelda
p1597
aVemelia
p1598
aVemelina
p1599
aVemeline
p1600
aVemely
p1601
aVemerald
p1602
aVemerita
p1603
aVemerson
p1604
aVemery
p1605
aVemiko
p1606
aVemil
p1607
aVemile
p1608
aVemilee
p1609
aVemilia
p1610
aVemilie
p1611
aVemilio
p1612
aVemily
p1613
aVemma
p1614
aVemmaline
p1615
aVemmanuel
p1616
aVemmie
p1617
aVemmitt
p1618
aVemmy
p1619
aVemogene
p1620
aVemory
p1621
aVena
p1622
aVenda
p1623
aVenedina
p1624
aVdeedra
p1625
aVenid
p1626
aVenoch
p1627
aVenola
p1628
aVenough
p1629
aVenrique
p1630
aVenriqueta
p1631
aVepifania
p1632
aVdelaine
p1633
aVera
p1634
aVerasmo
p1635
aVeric
p1636
aVerica
p1637
aVerich
p1638
aVerick
p1639
aVericka
p1640
aVerik
p1641
aVerika
p1642
aVerin
p1643
aVerinn
p1644
aVerlene
p1645
aVerlinda
p1646
aVerline
p1647
aVerma
p1648
aVermelinda
p1649
aVerminia
p1650
aVerna
p1651
aVernest
p1652
aVernestina
p1653
aVernestine
p1654
aVernesto
p1655
aVernie
p1656
aVerrol
p1657
aVervin
p1658
aVerwin
p1659
aVeryn
p1660
aVesmeralda
p1661
aVesperanza
p1662
aVessie
p1663
aVesteban
p1664
aVestefana
p1665
aVestela
p1666
aVestell
p1667
aVestella
p1668
aVestelle
p1669
aVester
p1670
aVesther
p1671
aVestrella
p1672
aVetc
p1673
aVetha
p1674
aVethan
p1675
aVdenisse
p1676
aVethel
p1677
aVethelene
p1678
aVethelyn
p1679
aVethyl
p1680
aVetsuko
p1681
aVetta
p1682
aVettie
p1683
aVeufemia
p1684
aVeugena
p1685
aVeugene
p1686
aVeugenia
p1687
aVeugenie
p1688
aVeugenio
p1689
aVeula
p1690
aVeulah
p1691
aVeulalia
p1692
aVdesmond
p1693
aVeun
p1694
aVeuna
p1695
aVeunice
p1696
aVeura
p1697
aVeusebia
p1698
aVeusebio
p1699
aVeustolia
p1700
aVevalyn
p1701
aVevan
p1702
aVevangelina
p1703
aVevangeline
p1704
aVeve
p1705
aVevelia
p1706
aVevelin
p1707
aVevelina
p1708
aVeveline
p1709
aVevelyn
p1710
aVevelyne
p1711
aVevelynn
p1712
aVeven
p1713
aVever
p1714
aVeverett
p1715
aVeverette
p1716
aVevery
p1717
aVeveryone
p1718
aVeverything
p1719
aVevette
p1720
aVevia
p1721
aVevie
p1722
aVevita
p1723
aVevon
p1724
aVevonne
p1725
aVewa
p1726
aVexcept
p1727
aVexie
p1728
aVezekiel
p1729
aVezequiel
p1730
aVezra
p1731
aVf
p1732
aVfabian
p1733
aVfabiola
p1734
aVfae
p1735
aVfairy
p1736
aVfaith
p1737
aVfallon
p1738
aVfannie
p1739
aVfanny
p1740
aVfar
p1741
aVfarah
p1742
aVfarrah
p1743
aVfatima
p1744
aVfatimah
p1745
aVfaustina
p1746
aVfaustino
p1747
aVfausto
p1748
aVfawn
p1749
aVfay
p1750
aVfaye
p1751
aVfe
p1752
aVfelecia
p1753
aVfelica
p1754
aVfelice
p1755
aVfelicia
p1756
aVfelicidad
p1757
aVfelicita
p1758
aVfelicitas
p1759
aVfelipa
p1760
aVfelipe
p1761
aVfelisa
p1762
aVfelisha
p1763
aVfelix
p1764
aVfelton
p1765
aVferdinand
p1766
aVfermin
p1767
aVfermina
p1768
aVfern
p1769
aVfernanda
p1770
aVfernande
p1771
aVfernando
p1772
aVferne
p1773
aVfew
p1774
aVfidel
p1775
aVfidela
p1776
aVfidelia
p1777
aVfifty
p1778
aVfiliberto
p1779
aVfilomena
p1780
aVfiona
p1781
aVfirst
p1782
aVfive
p1783
aVflavia
p1784
aVfleta
p1785
aVfletcher
p1786
aVflo
p1787
aVflor
p1788
aVflora
p1789
aVflorance
p1790
aVflorence
p1791
aVflorencia
p1792
aVflorencio
p1793
aVflorene
p1794
aVdottie
p1795
aVflorentina
p1796
aVflorentino
p1797
aVfloretta
p1798
aVfloria
p1799
aVflorida
p1800
aVflorinda
p1801
aVflorine
p1802
aVdrema
p1803
aVflorrie
p1804
aVflossie
p1805
aVdrusilla
p1806
aVfloy
p1807
aVfloyd
p1808
aVdulce
p1809
aVfonda
p1810
aVduncan
p1811
aVfor
p1812
aVforest
p1813
aVformer
p1814
aVformerly
p1815
aVdwain
p1816
aVforrest
p1817
aVforty
p1818
aVfoster
p1819
aVdyan
p1820
aVfound
p1821
aVfour
p1822
aVfran
p1823
aVfrance
p1824
aVfrancene
p1825
aVfrances
p1826
aVfrancesca
p1827
aVfrancesco
p1828
aVfranchesca
p1829
aVfrancie
p1830
aVfrancina
p1831
aVfrancine
p1832
aVfrancis
p1833
aVfrancisca
p1834
aVfrancisco
p1835
aVfrancoise
p1836
aVfrank
p1837
aVeda
p1838
aVfrankie
p1839
aVfranklyn
p1840
aVfransisca
p1841
aVfred
p1842
aVfreda
p1843
aVedgar
p1844
aVfredda
p1845
aVfreddie
p1846
aVedison
p1847
aVfreddy
p1848
aVfrederic
p1849
aVfrederica
p1850
aVfrederick
p1851
aVfredericka
p1852
aVfredia
p1853
aVfredric
p1854
aVfredrick
p1855
aVfredricka
p1856
aVfreeda
p1857
aVfreeman
p1858
aVedwina
p1859
aVfreida
p1860
aVfrida
p1861
aVfrieda
p1862
aVfritz
p1863
aVfrom
p1864
aVfumiko
p1865
aVeileen
p1866
aVfurther
p1867
aVg
p1868
aVgabriel
p1869
aVgabriela
p1870
aVgabriele
p1871
aVgabriella
p1872
aVgabrielle
p1873
aVgail
p1874
aVgala
p1875
aVgale
p1876
aVelbert
p1877
aVgalen
p1878
aVgalina
p1879
aVgarfield
p1880
aVgarland
p1881
aVgarnet
p1882
aVgarnett
p1883
aVgarret
p1884
aVgarrett
p1885
aVgarry
p1886
aVgary
p1887
aVgaston
p1888
aVgavin
p1889
aVgay
p1890
aVgaye
p1891
aVelenore
p1892
aVgayla
p1893
aVgayle
p1894
aVgaylene
p1895
aVgaylord
p1896
aVgaynell
p1897
aVgearldine
p1898
aVgema
p1899
aVgemma
p1900
aVgena
p1901
aVgene
p1902
aVgenesis
p1903
aVgeneva
p1904
aVgenevie
p1905
aVgenevieve
p1906
aVelin
p1907
aVgenevive
p1908
aVgenia
p1909
aVgenie
p1910
aVgenna
p1911
aVgennie
p1912
aVgenny
p1913
aVgenoveva
p1914
aVgeoffrey
p1915
aVgeorgann
p1916
aVgeorge
p1917
aVgeorgeann
p1918
aVelizabet
p1919
aVgeorgeanna
p1920
aVgeorgene
p1921
aVgeorgetta
p1922
aVgeorgette
p1923
aVgeorgia
p1924
aVgeorgiana
p1925
aVgeorgiann
p1926
aVgeorgianne
p1927
aVgeorgina
p1928
aVgeorgine
p1929
aVgerald
p1930
aVgeraldine
p1931
aVgeraldo
p1932
aVgeralyn
p1933
aVgerard
p1934
aVgerardo
p1935
aVgerda
p1936
aVgeri
p1937
aVgerman
p1938
aVgerri
p1939
aVgerry
p1940
aVgertie
p1941
aVgertrude
p1942
aVgertrudis
p1943
aVget
p1944
aVghislaine
p1945
aVgia
p1946
aVgianna
p1947
aVgidget
p1948
aVgigi
p1949
aVgilbert
p1950
aVgilberte
p1951
aVgilberto
p1952
aVgilda
p1953
aVgillian
p1954
aVgilma
p1955
aVgina
p1956
aVginette
p1957
aVginger
p1958
aVelvin
p1959
aVginny
p1960
aVgino
p1961
aVgiovanna
p1962
aVgiovanni
p1963
aVgisela
p1964
aVgisele
p1965
aVgiselle
p1966
aVgita
p1967
aVgiuseppe
p1968
aVgiuseppina
p1969
aVgladis
p1970
aVglady
p1971
aVgladys
p1972
aVglayds
p1973
aVglen
p1974
aVglenda
p1975
aVglendora
p1976
aVglenn
p1977
aVglenna
p1978
aVglennie
p1979
aVglennis
p1980
aVglinda
p1981
aVgloria
p1982
aVglory
p1983
aVglynda
p1984
aVglynis
p1985
aVgo
p1986
aVgolda
p1987
aVgolden
p1988
aVemmett
p1989
aVgoldie
p1990
aVgonzalo
p1991
aVgood
p1992
aVgordon
p1993
aVgot
p1994
aVgrace
p1995
aVgracia
p1996
aVgracie
p1997
aVeneida
p1998
aVgraciela
p1999
aVgrady
p2000
aVgraham
p2001
aVgrant
p2002
aVgranville
p2003
aVgrayce
p2004
aVgrazyna
p2005
aVgreat
p2006
aVgregg
p2007
aVgregoria
p2008
aVgregorio
p2009
aVgregory
p2010
aVgreta
p2011
aVgretchen
p2012
aVgretta
p2013
aVgricelda
p2014
aVgrisel
p2015
aVgriselda
p2016
aVguadalupe
p2017
aVgudrun
p2018
aVguillermina
p2019
aVguillermo
p2020
aVgus
p2021
aVgussie
p2022
aVgustavo
p2023
aVguy
p2024
aVgwen
p2025
aVgwenda
p2026
aVgwendolyn
p2027
aVgwenn
p2028
aVgwyn
p2029
aVgwyneth
p2030
aVh
p2031
aVha
p2032
aVhae
p2033
aVhai
p2034
aVesta
p2035
aVhailey
p2036
aVhal
p2037
aVhaley
p2038
aVhalina
p2039
aVhalley
p2040
aVhallie
p2041
aVhan
p2042
aVhang
p2043
aVhanh
p2044
aVhank
p2045
aVhanna
p2046
aVhannah
p2047
aVhannelore
p2048
aVhans
p2049
aVharlan
p2050
aVharland
p2051
aVharley
p2052
aVharmony
p2053
aVharold
p2054
aVharriet
p2055
aVharriett
p2056
aVharriette
p2057
aVharris
p2058
aVharrison
p2059
aVharry
p2060
aVharvey
p2061
aVhas
p2062
aVhasnt
p2063
aVhassan
p2064
aVhassie
p2065
aVhattie
p2066
aVhave
p2067
aVhavent
p2068
aVhaydee
p2069
aVeva
p2070
aVhayden
p2071
aVhayley
p2072
aVhaywood
p2073
aVhazel
p2074
aVhe
p2075
aVheath
p2076
aVheather
p2077
aVhector
p2078
aVhed
p2079
aVhedwig
p2080
aVhedy
p2081
aVheide
p2082
aVheidi
p2083
aVheidy
p2084
aVheike
p2085
aVhelaine
p2086
aVhelen
p2087
aVhelena
p2088
aVhelene
p2089
aVhelga
p2090
aVhellen
p2091
aVhence
p2092
aVhenrietta
p2093
aVhenriette
p2094
aVhenry
p2095
aVher
p2096
aVherb
p2097
aVherbert
p2098
aVhere
p2099
aVhereafter
p2100
aVhereby
p2101
aVherein
p2102
aVheres
p2103
aVhereupon
p2104
aVherlinda
p2105
aVherma
p2106
aVherman
p2107
aVhermelinda
p2108
aVhermina
p2109
aVhermine
p2110
aVfaviola
p2111
aVherminia
p2112
aVhers
p2113
aVherschel
p2114
aVherself
p2115
aVfederico
p2116
aVhershel
p2117
aVhertha
p2118
aVhes
p2119
aVhester
p2120
aVhettie
p2121
aVhid
p2122
aVhien
p2123
aVhilaria
p2124
aVhilario
p2125
aVhilary
p2126
aVhilda
p2127
aVhildegard
p2128
aVhildred
p2129
aVhillary
p2130
aVhilma
p2131
aVhilton
p2132
aVhim
p2133
aVhimself
p2134
aVhipolito
p2135
aVhiroko
p2136
aVhis
p2137
aVhoa
p2138
aVhobert
p2139
aVholley
p2140
aVholli
p2141
aVhollie
p2142
aVholly
p2143
aVhome
p2144
aVhomer
p2145
aVhoney
p2146
aVhong
p2147
aVhope
p2148
aVhorace
p2149
aVhoracio
p2150
aVhortencia
p2151
aVhortense
p2152
aVhortensia
p2153
aVhosea
p2154
aVhouston
p2155
aVhow
p2156
aVhoward
p2157
aVhowever
p2158
aVhoyt
p2159
aVhubert
p2160
aVhuey
p2161
aVhugh
p2162
aVhui
p2163
aVhulda
p2164
aVhumberto
p2165
aVhundred
p2166
aVhung
p2167
aVhunter
p2168
aVhuong
p2169
aVhwa
p2170
aVhye
p2171
aVhyman
p2172
aVhyo
p2173
aVhyon
p2174
aVi
p2175
aVian
p2176
aVid
p2177
aVida
p2178
aVidalia
p2179
aVidell
p2180
aVidella
p2181
aVie
p2182
aViesha
p2183
aVif
p2184
aVignacio
p2185
aVfranklin
p2186
aVike
p2187
aVilana
p2188
aVileana
p2189
aVileen
p2190
aVilene
p2191
aViliana
p2192
aVill
p2193
aVilla
p2194
aVilona
p2195
aVilse
p2196
aViluminada
p2197
aVim
p2198
aVima
p2199
aVimelda
p2200
aVimogene
p2201
aVin
p2202
aVinc
p2203
aVinclude
p2204
aVincludes
p2205
aVindeed
p2206
aVindex
p2207
aVindia
p2208
aVindira
p2209
aVinell
p2210
aVines
p2211
aVinez
p2212
aVinformation
p2213
aVinga
p2214
aVinge
p2215
aVingeborg
p2216
aVinger
p2217
aVingrid
p2218
aVinocencia
p2219
aVinstead
p2220
aVinternet
p2221
aVinto
p2222
aViola
p2223
aViona
p2224
aVgarth
p2225
aVione
p2226
aViraida
p2227
aVirena
p2228
aVirene
p2229
aViris
p2230
aVirish
p2231
aVirma
p2232
aVirmgard
p2233
aVirvin
p2234
aVirving
p2235
aVgaynelle
p2236
aVis
p2237
aVisa
p2238
aVisaac
p2239
aVisabel
p2240
aVgenaro
p2241
aVisabell
p2242
aVisabella
p2243
aVisadora
p2244
aVisaiah
p2245
aVisaias
p2246
aVisaura
p2247
aVisela
p2248
aVisiah
p2249
aVisidra
p2250
aVisidro
p2251
aVisis
p2252
aVismael
p2253
aVisnt
p2254
aVisobel
p2255
aVisrael
p2256
aVisreal
p2257
aVissac
p2258
aVit
p2259
aVits
p2260
aVitself
p2261
aVivan
p2262
aVivana
p2263
aVive
p2264
aVgeorgianna
p2265
aVivelisse
p2266
aVgeorgie
p2267
aVivey
p2268
aVivonne
p2269
aVivory
p2270
aVivy
p2271
aVizetta
p2272
aVizola
p2273
aVj
p2274
aVja
p2275
aVjacalyn
p2276
aVjacelyn
p2277
aVgermaine
p2278
aVjacinda
p2279
aVjacinta
p2280
aVjacinto
p2281
aVgertha
p2282
aVjackeline
p2283
aVgertrud
p2284
aVjackelyn
p2285
aVjacki
p2286
aVgertude
p2287
aVjackie
p2288
aVjacklyn
p2289
aVjackqueline
p2290
aVjackson
p2291
aVjaclyn
p2292
aVgil
p2293
aVjacob
p2294
aVjacqualine
p2295
aVjacque
p2296
aVjacquelin
p2297
aVjacqueline
p2298
aVjacquelyne
p2299
aVjacquelynn
p2300
aVjacques
p2301
aVjacquetta
p2302
aVjacqui
p2303
aVjacquie
p2304
aVjacquiline
p2305
aVjacquline
p2306
aVjacqulyn
p2307
aVjada
p2308
aVjadwiga
p2309
aVjae
p2310
aVjaime
p2311
aVjaimee
p2312
aVjaimie
p2313
aVjake
p2314
aVjaleesa
p2315
aVjalisa
p2316
aVjama
p2317
aVjamaal
p2318
aVjamal
p2319
aVjamar
p2320
aVjame
p2321
aVjamee
p2322
aVjamel
p2323
aVjames
p2324
aVjamey
p2325
aVjami
p2326
aVjamie
p2327
aVjamika
p2328
aVjamila
p2329
aVjamison
p2330
aVjammie
p2331
aVjan
p2332
aVjana
p2333
aVjanae
p2334
aVjanay
p2335
aVjane
p2336
aVjanean
p2337
aVjanee
p2338
aVjaneen
p2339
aVgraig
p2340
aVjanel
p2341
aVjanell
p2342
aVjanella
p2343
aVjanelle
p2344
aVgreg
p2345
aVjanene
p2346
aVjanessa
p2347
aVjanet
p2348
aVjaneth
p2349
aVjanett
p2350
aVjanetta
p2351
aVjanette
p2352
aVjaney
p2353
aVjani
p2354
aVjanice
p2355
aVgrover
p2356
aVjanie
p2357
aVjanina
p2358
aVjanine
p2359
aVjanis
p2360
aVjanise
p2361
aVjanita
p2362
aVjann
p2363
aVjanna
p2364
aVjannet
p2365
aVjannette
p2366
aVjannie
p2367
aVjanuary
p2368
aVjanyce
p2369
aVjaqueline
p2370
aVjaquelyn
p2371
aVjared
p2372
aVjarod
p2373
aVjarred
p2374
aVjarrett
p2375
aVjarrod
p2376
aVjarvis
p2377
aVjasmin
p2378
aVjason
p2379
aVjasper
p2380
aVhana
p2381
aVjaunita
p2382
aVjavier
p2383
aVjay
p2384
aVjaye
p2385
aVjayme
p2386
aVjaymie
p2387
aVjayna
p2388
aVjayne
p2389
aVjayson
p2390
aVjazmin
p2391
aVjazmine
p2392
aVjc
p2393
aVjean
p2394
aVjeana
p2395
aVjeane
p2396
aVjeanelle
p2397
aVjeanene
p2398
aVjeanett
p2399
aVjeanetta
p2400
aVjeanette
p2401
aVjeanice
p2402
aVjeanie
p2403
aVjeanine
p2404
aVjeanmarie
p2405
aVjeanna
p2406
aVjeanne
p2407
aVjeannetta
p2408
aVjeannette
p2409
aVjeannie
p2410
aVjeannine
p2411
aVjed
p2412
aVjeff
p2413
aVhee
p2414
aVjefferey
p2415
aVjefferson
p2416
aVjeffery
p2417
aVjeffie
p2418
aVjeffrey
p2419
aVjeffry
p2420
aVjen
p2421
aVjena
p2422
aVjenae
p2423
aVjene
p2424
aVjenee
p2425
aVjenell
p2426
aVjenelle
p2427
aVjenette
p2428
aVjeneva
p2429
aVheriberto
p2430
aVjeni
p2431
aVjenice
p2432
aVjenifer
p2433
aVjeniffer
p2434
aVhermila
p2435
aVjenine
p2436
aVjenise
p2437
aVjenna
p2438
aVjennefer
p2439
aVjennell
p2440
aVherta
p2441
aVjennette
p2442
aVjenni
p2443
aVjennie
p2444
aVhiedi
p2445
aVjennifer
p2446
aVjenniffer
p2447
aVjennine
p2448
aVjerald
p2449
aVjeraldine
p2450
aVhilde
p2451
aVjeramy
p2452
aVhildegarde
p2453
aVjere
p2454
aVjeremiah
p2455
aVjeri
p2456
aVjerica
p2457
aVjerilyn
p2458
aVhiram
p2459
aVjermaine
p2460
aVhisako
p2461
aVjerold
p2462
aVjerome
p2463
aVjeromy
p2464
aVjerrell
p2465
aVjerri
p2466
aVhollis
p2467
aVjerrica
p2468
aVjerrie
p2469
aVjerrod
p2470
aVjerrold
p2471
aVjerry
p2472
aVjesica
p2473
aVjess
p2474
aVjesse
p2475
aVjessenia
p2476
aVjessi
p2477
aVjessia
p2478
aVjessica
p2479
aVjessika
p2480
aVjestine
p2481
aVhsiu
p2482
aVjesus
p2483
aVhue
p2484
aVjesusa
p2485
aVjesusita
p2486
aVhugo
p2487
aVjetta
p2488
aVjettie
p2489
aVjewel
p2490
aVjewell
p2491
aVji
p2492
aVjill
p2493
aVjillian
p2494
aVhyacinth
p2495
aVjim
p2496
aVjimmie
p2497
aVjin
p2498
aVjina
p2499
aVhyun
p2500
aVjinny
p2501
aVjo
p2502
aVjoan
p2503
aVjoana
p2504
aVjoane
p2505
aVjoann
p2506
aVignacia
p2507
aVjoanna
p2508
aVjoanne
p2509
aVila
p2510
aVjoannie
p2511
aVilda
p2512
aVjoaquin
p2513
aVjoaquina
p2514
aVjocelyn
p2515
aVjodee
p2516
aVjodi
p2517
aVjodie
p2518
aVjody
p2519
aVjoeann
p2520
aVjoel
p2521
aVjoella
p2522
aVjoelle
p2523
aVjoellen
p2524
aVina
p2525
aVjoesph
p2526
aVjoetta
p2527
aVjoette
p2528
aVjoey
p2529
aVjohana
p2530
aVjohanna
p2531
aVjohanne
p2532
aVjohn
p2533
aVjohna
p2534
aVjohnathan
p2535
aVjohnathon
p2536
aVjohnetta
p2537
aVjohnie
p2538
aVjohnna
p2539
aVira
p2540
aVjohnnie
p2541
aVjohnny
p2542
aVjohnsie
p2543
aVirina
p2544
aVjohnson
p2545
aVjoi
p2546
aVjoie
p2547
aVjolanda
p2548
aVjoleen
p2549
aVjolene
p2550
aVirwin
p2551
aVjolie
p2552
aVjoline
p2553
aVjolyn
p2554
aVjolynn
p2555
aVjon
p2556
aVisabelle
p2557
aVjona
p2558
aVjonah
p2559
aVjonas
p2560
aVjonathon
p2561
aVjone
p2562
aVjonell
p2563
aVjonelle
p2564
aVjong
p2565
aVjoni
p2566
aVjonie
p2567
aVjonna
p2568
aVjonnie
p2569
aVjordan
p2570
aVjordon
p2571
aViva
p2572
aVjorge
p2573
aVjose
p2574
aVjosef
p2575
aVivette
p2576
aVjosefa
p2577
aVjosefina
p2578
aVjosefine
p2579
aVjoselyn
p2580
aVjoseph
p2581
aVjosephina
p2582
aVjosephine
p2583
aVjosette
p2584
aVjosh
p2585
aVjoshua
p2586
aVjosiah
p2587
aVjosie
p2588
aVjack
p2589
aVjoslyn
p2590
aVjospeh
p2591
aVjosphine
p2592
aVjosue
p2593
aVjovan
p2594
aVjoy
p2595
aVjoya
p2596
aVjoyce
p2597
aVjoycelyn
p2598
aVjoye
p2599
aVjuan
p2600
aVjuana
p2601
aVjuanita
p2602
aVjacquelyn
p2603
aVjude
p2604
aVjudi
p2605
aVjudie
p2606
aVjudith
p2607
aVjudson
p2608
aVjudy
p2609
aVjulee
p2610
aVjulene
p2611
aVjules
p2612
aVjuli
p2613
aVjade
p2614
aVjulia
p2615
aVjulian
p2616
aVjuliana
p2617
aVjuliane
p2618
aVjuliann
p2619
aVjulianna
p2620
aVjulianne
p2621
aVjulie
p2622
aVjulieann
p2623
aVjulienne
p2624
aVjuliet
p2625
aVjulieta
p2626
aVjulietta
p2627
aVjuliette
p2628
aVjulio
p2629
aVjulissa
p2630
aVjulius
p2631
aVjune
p2632
aVjung
p2633
aVjunie
p2634
aVjunior
p2635
aVjunita
p2636
aVjunko
p2637
aVjust
p2638
aVjusta
p2639
aVjustina
p2640
aVjustine
p2641
aVjutta
p2642
aVk
p2643
aVka
p2644
aVkacey
p2645
aVkaci
p2646
aVkacie
p2647
aVkacy
p2648
aVkai
p2649
aVkaila
p2650
aVkaitlin
p2651
aVkaitlyn
p2652
aVkala
p2653
aVkaleigh
p2654
aVkaley
p2655
aVkali
p2656
aVkallie
p2657
aVkalyn
p2658
aVkam
p2659
aVkamala
p2660
aVjaniece
p2661
aVkami
p2662
aVkamilah
p2663
aVkandace
p2664
aVkandice
p2665
aVkandis
p2666
aVkandra
p2667
aVkandy
p2668
aVkanesha
p2669
aVkanisha
p2670
aVkara
p2671
aVkaran
p2672
aVkareem
p2673
aVkareen
p2674
aVkaren
p2675
aVkarena
p2676
aVkarey
p2677
aVkari
p2678
aVkarie
p2679
aVkarima
p2680
aVkarin
p2681
aVkarina
p2682
aVjasmine
p2683
aVkarine
p2684
aVkarisa
p2685
aVkarissa
p2686
aVkarl
p2687
aVkarla
p2688
aVkarleen
p2689
aVkarlene
p2690
aVkarly
p2691
aVkarlyn
p2692
aVkarma
p2693
aVkarmen
p2694
aVkarol
p2695
aVkarole
p2696
aVkaroline
p2697
aVkarolyn
p2698
aVkaron
p2699
aVkarren
p2700
aVkarri
p2701
aVkarrie
p2702
aVkarry
p2703
aVkary
p2704
aVkaryl
p2705
aVkaryn
p2706
aVkasandra
p2707
aVkasha
p2708
aVkasi
p2709
aVkassandra
p2710
aVkassie
p2711
aVkate
p2712
aVkatelin
p2713
aVkatelyn
p2714
aVkatelynn
p2715
aVkaterine
p2716
aVkathaleen
p2717
aVkatharina
p2718
aVkatharine
p2719
aVkatharyn
p2720
aVkathe
p2721
aVkatheleen
p2722
aVkatherin
p2723
aVkatherine
p2724
aVkathern
p2725
aVkathey
p2726
aVkathi
p2727
aVkathie
p2728
aVkathleen
p2729
aVkathlene
p2730
aVkathline
p2731
aVkathlyn
p2732
aVkathrin
p2733
aVkathrine
p2734
aVkathryn
p2735
aVkathryne
p2736
aVkathy
p2737
aVkathyrn
p2738
aVkati
p2739
aVkatia
p2740
aVkatie
p2741
aVkatlyn
p2742
aVkatrice
p2743
aVkatrina
p2744
aVkattie
p2745
aVkaty
p2746
aVkay
p2747
aVjenny
p2748
aVkayce
p2749
aVkaycee
p2750
aVkaye
p2751
aVkayla
p2752
aVkaylee
p2753
aVjeremy
p2754
aVkayleen
p2755
aVkayleigh
p2756
aVkaylene
p2757
aVjerlene
p2758
aVkazuko
p2759
aVkecia
p2760
aVkeeley
p2761
aVkeely
p2762
aVkeena
p2763
aVkeesha
p2764
aVkeiko
p2765
aVkeila
p2766
aVkeira
p2767
aVkeisha
p2768
aVkeith
p2769
aVjesenia
p2770
aVkeitha
p2771
aVkeli
p2772
aVkelle
p2773
aVkelley
p2774
aVkelli
p2775
aVkellie
p2776
aVkelly
p2777
aVjessie
p2778
aVkellye
p2779
aVkelsey
p2780
aVkelsi
p2781
aVkelsie
p2782
aVkelvin
p2783
aVkemberly
p2784
aVken
p2785
aVkena
p2786
aVkenda
p2787
aVkendal
p2788
aVkendall
p2789
aVkendra
p2790
aVkendrick
p2791
aVkeneth
p2792
aVjimmy
p2793
aVkenia
p2794
aVkenisha
p2795
aVkenna
p2796
aVkenneth
p2797
aVkenny
p2798
aVkent
p2799
aVkenton
p2800
aVjoanie
p2801
aVkenyatta
p2802
aVkenyetta
p2803
aVkera
p2804
aVkeren
p2805
aVkeri
p2806
aVkermit
p2807
aVkerri
p2808
aVkerrie
p2809
aVkerry
p2810
aVkerstin
p2811
aVkesha
p2812
aVjoe
p2813
aVkeshia
p2814
aVketurah
p2815
aVkeva
p2816
aVkeven
p2817
aVkevin
p2818
aVkhadijah
p2819
aVkhalilah
p2820
aVkia
p2821
aVkiana
p2822
aVkiara
p2823
aVkiera
p2824
aVkiersten
p2825
aVkiesha
p2826
aVkieth
p2827
aVkim
p2828
aVkimber
p2829
aVkimberlee
p2830
aVjohnette
p2831
aVkimberley
p2832
aVkimberlie
p2833
aVkimberly
p2834
aVkimbery
p2835
aVkimbra
p2836
aVkimi
p2837
aVkimiko
p2838
aVkina
p2839
aVkindra
p2840
aVking
p2841
aVkira
p2842
aVkirby
p2843
aVkirk
p2844
aVkirsten
p2845
aVkirstie
p2846
aVkirstin
p2847
aVkisha
p2848
aVkit
p2849
aVkittie
p2850
aVjonathan
p2851
aVkitty
p2852
aVkiyoko
p2853
aVkizzie
p2854
aVkizzy
p2855
aVklara
p2856
aVknow
p2857
aVkorey
p2858
aVkori
p2859
aVkortney
p2860
aVkory
p2861
aVkourtney
p2862
aVkraig
p2863
aVkris
p2864
aVkrishna
p2865
aVkrissy
p2866
aVkrista
p2867
aVkristal
p2868
aVkristan
p2869
aVkristeen
p2870
aVkristel
p2871
aVkristen
p2872
aVkristi
p2873
aVkristian
p2874
aVkristie
p2875
aVkristin
p2876
aVkristina
p2877
aVkristine
p2878
aVkristofer
p2879
aVkristy
p2880
aVkristyn
p2881
aVkrysta
p2882
aVjovita
p2883
aVkrystal
p2884
aVkrysten
p2885
aVkrystin
p2886
aVkrystina
p2887
aVkrystle
p2888
aVkrystyna
p2889
aVkum
p2890
aVkurt
p2891
aVkurtis
p2892
aVkyla
p2893
aVkyle
p2894
aVkylee
p2895
aVkylie
p2896
aVkym
p2897
aVjule
p2898
aVkymberly
p2899
aVkyoko
p2900
aVkyong
p2901
aVkyra
p2902
aVkyung
p2903
aVl
p2904
aVlacey
p2905
aVlachelle
p2906
aVlaci
p2907
aVlacie
p2908
aVlacresha
p2909
aVlacy
p2910
aVladawn
p2911
aVladonna
p2912
aVlady
p2913
aVlael
p2914
aVlahoma
p2915
aVlai
p2916
aVlaine
p2917
aVlajuana
p2918
aVlakeesha
p2919
aVlakeisha
p2920
aVlakendra
p2921
aVlakenya
p2922
aVlakesha
p2923
aVlakeshia
p2924
aVlakia
p2925
aVlakiesha
p2926
aVjustin
p2927
aVlakisha
p2928
aVlakita
p2929
aVlala
p2930
aVlamonica
p2931
aVlamont
p2932
aVlan
p2933
aVlana
p2934
aVlance
p2935
aVlandon
p2936
aVlane
p2937
aVlanell
p2938
aVlanelle
p2939
aVlanette
p2940
aVlani
p2941
aVlanie
p2942
aVlanita
p2943
aVlannie
p2944
aVlanny
p2945
aVlanora
p2946
aVlaquanda
p2947
aVlaquita
p2948
aVlara
p2949
aVlarae
p2950
aVkandi
p2951
aVlaraine
p2952
aVlaree
p2953
aVlarhonda
p2954
aVlarisa
p2955
aVlarissa
p2956
aVlarita
p2957
aVlaronda
p2958
aVlarraine
p2959
aVlarry
p2960
aVlarue
p2961
aVlasandra
p2962
aVlashanda
p2963
aVlashandra
p2964
aVlashaun
p2965
aVlashaunda
p2966
aVlashawn
p2967
aVlashawna
p2968
aVlashay
p2969
aVlashell
p2970
aVlashon
p2971
aVlashonda
p2972
aVlashunda
p2973
aVlast
p2974
aVlatanya
p2975
aVlatasha
p2976
aVlatashia
p2977
aVlater
p2978
aVlatesha
p2979
aVlatia
p2980
aVlaticia
p2981
aVlatina
p2982
aVlatisha
p2983
aVlatonia
p2984
aVlatonya
p2985
aVlatoria
p2986
aVlatosha
p2987
aVlatoya
p2988
aVlatoyia
p2989
aVlatrice
p2990
aVlatricia
p2991
aVlatrina
p2992
aVlatrisha
p2993
aVkasey
p2994
aVlatter
p2995
aVlatterly
p2996
aVkasie
p2997
aVlauna
p2998
aVlaura
p2999
aVlauralee
p3000
aVlauran
p3001
aVlaure
p3002
aVlaureen
p3003
aVlaurel
p3004
aVlauren
p3005
aVlaurena
p3006
aVlaurence
p3007
aVlaurene
p3008
aVlauretta
p3009
aVlaurette
p3010
aVlauri
p3011
aVkatherina
p3012
aVlaurice
p3013
aVlaurie
p3014
aVkatheryn
p3015
aVlaurinda
p3016
aVlaurine
p3017
aVlauryn
p3018
aVlavada
p3019
aVlavelle
p3020
aVlavenia
p3021
aVlavera
p3022
aVlavern
p3023
aVlaverna
p3024
aVlaverne
p3025
aVlaveta
p3026
aVlavette
p3027
aVlavinia
p3028
aVlavon
p3029
aVlavona
p3030
aVlavonda
p3031
aVkatina
p3032
aVlavone
p3033
aVlavonia
p3034
aVlavonna
p3035
aVlawana
p3036
aVlawanda
p3037
aVlawanna
p3038
aVlawerence
p3039
aVlawrence
p3040
aVlayla
p3041
aVlayne
p3042
aVlazaro
p3043
aVle
p3044
aVlea
p3045
aVleah
p3046
aVlean
p3047
aVleana
p3048
aVleandra
p3049
aVleandro
p3050
aVleann
p3051
aVkeenan
p3052
aVleanna
p3053
aVleanne
p3054
aVleanora
p3055
aVleast
p3056
aVleatha
p3057
aVleatrice
p3058
aVlecia
p3059
aVleda
p3060
aVleeann
p3061
aVkellee
p3062
aVleeanna
p3063
aVleeanne
p3064
aVleena
p3065
aVleesa
p3066
aVleft
p3067
aVleia
p3068
aVleida
p3069
aVleif
p3070
aVleigh
p3071
aVleigha
p3072
aVleighann
p3073
aVleila
p3074
aVleilani
p3075
aVleisa
p3076
aVleisha
p3077
aVlekisha
p3078
aVlela
p3079
aVlelah
p3080
aVleland
p3081
aVlelia
p3082
aVlemuel
p3083
aVlen
p3084
aVkennith
p3085
aVlena
p3086
aVlenard
p3087
aVlenita
p3088
aVkenya
p3089
aVlenna
p3090
aVlennie
p3091
aVlenny
p3092
aVlenora
p3093
aVlenore
p3094
aVleo
p3095
aVleola
p3096
aVleoma
p3097
aVleon
p3098
aVleona
p3099
aVleonard
p3100
aVleonarda
p3101
aVleonardo
p3102
aVleone
p3103
aVleonel
p3104
aVleonia
p3105
aVleonida
p3106
aVleonie
p3107
aVleonila
p3108
aVleonor
p3109
aVleonora
p3110
aVleonore
p3111
aVleontine
p3112
aVleopoldo
p3113
aVleora
p3114
aVkiley
p3115
aVleota
p3116
aVlera
p3117
aVkimberely
p3118
aVleroy
p3119
aVles
p3120
aVkimberli
p3121
aVlesa
p3122
aVlesha
p3123
aVlesia
p3124
aVleslee
p3125
aVlesley
p3126
aVlesli
p3127
aVleslie
p3128
aVless
p3129
aVlessie
p3130
aVkip
p3131
aVlester
p3132
aVlet
p3133
aVleta
p3134
aVletha
p3135
aVleticia
p3136
aVletisha
p3137
aVletitia
p3138
aVlets
p3139
aVlettie
p3140
aVletty
p3141
aVlevi
p3142
aVlewis
p3143
aVlezlie
p3144
aVli
p3145
aVlia
p3146
aVliana
p3147
aVliane
p3148
aVlianne
p3149
aVlibbie
p3150
aVlibby
p3151
aVliberty
p3152
aVlibrada
p3153
aVlida
p3154
aVlidia
p3155
aVlien
p3156
aVlieselotte
p3157
aVligia
p3158
aVlike
p3159
aVlikely
p3160
aVlila
p3161
aVlili
p3162
aVlilia
p3163
aVlilian
p3164
aVliliana
p3165
aVlilla
p3166
aVkristle
p3167
aVlilli
p3168
aVkristopher
p3169
aVlillia
p3170
aVlilliam
p3171
aVlillian
p3172
aVlilliana
p3173
aVlillie
p3174
aVlilly
p3175
aVlily
p3176
aVlin
p3177
aVlina
p3178
aVlincoln
p3179
aVlinda
p3180
aVlindsay
p3181
aVlindsey
p3182
aVlindsy
p3183
aVlindy
p3184
aVline
p3185
aVlinette
p3186
aVling
p3187
aVlinh
p3188
aVlinks
p3189
aVlinn
p3190
aVlinnea
p3191
aVlinnie
p3192
aVlino
p3193
aVlinsey
p3194
aVlinwood
p3195
aVlionel
p3196
aVlisa
p3197
aVlisabeth
p3198
aVlisandra
p3199
aVlisbeth
p3200
aVlise
p3201
aVlisette
p3202
aVlisha
p3203
aVlaila
p3204
aVlissa
p3205
aVlissette
p3206
aVlita
p3207
aVlivia
p3208
aVliz
p3209
aVliza
p3210
aVlizabeth
p3211
aVlizbeth
p3212
aVlizeth
p3213
aVlizette
p3214
aVlizzette
p3215
aVlizzie
p3216
aVll
p3217
aVlamar
p3218
aVlloyd
p3219
aVloan
p3220
aVlogan
p3221
aVloida
p3222
aVlois
p3223
aVlola
p3224
aVlolita
p3225
aVloma
p3226
aVlon
p3227
aVlona
p3228
aVlang
p3229
aVlonda
p3230
aVloni
p3231
aVlonna
p3232
aVlonnie
p3233
aVlonny
p3234
aVlora
p3235
aVloraine
p3236
aVloralee
p3237
aVlore
p3238
aVlorean
p3239
aVloree
p3240
aVloreen
p3241
aVlorelei
p3242
aVloren
p3243
aVlorena
p3244
aVlorene
p3245
aVlorenza
p3246
aVlorenzo
p3247
aVloreta
p3248
aVloretta
p3249
aVlorette
p3250
aVlori
p3251
aVloria
p3252
aVloriann
p3253
aVlorie
p3254
aVlorilee
p3255
aVlashawnda
p3256
aVlorinda
p3257
aVloris
p3258
aVlorita
p3259
aVlorna
p3260
aVlorraine
p3261
aVlasonya
p3262
aVlorretta
p3263
aVlatarsha
p3264
aVlorri
p3265
aVlorriane
p3266
aVlorrie
p3267
aVlorrine
p3268
aVlory
p3269
aVlottie
p3270
aVlou
p3271
aVlouanne
p3272
aVlouella
p3273
aVlouetta
p3274
aVlouie
p3275
aVlouis
p3276
aVlouisa
p3277
aVlouise
p3278
aVloura
p3279
aVlourdes
p3280
aVlourie
p3281
aVlove
p3282
aVlovella
p3283
aVlovetta
p3284
aVlovie
p3285
aVlowell
p3286
aVloyce
p3287
aVloyd
p3288
aVltd
p3289
aVlu
p3290
aVluana
p3291
aVluann
p3292
aVluanna
p3293
aVluanne
p3294
aVluba
p3295
aVlucas
p3296
aVluci
p3297
aVlucia
p3298
aVluciano
p3299
aVlucie
p3300
aVlucien
p3301
aVlucienne
p3302
aVlucila
p3303
aVlucilla
p3304
aVlucille
p3305
aVlucina
p3306
aVlucio
p3307
aVlucius
p3308
aVlucrecia
p3309
aVlavina
p3310
aVlucretia
p3311
aVlucy
p3312
aVludie
p3313
aVludivina
p3314
aVluella
p3315
aVluetta
p3316
aVluigi
p3317
aVlavonne
p3318
aVluis
p3319
aVluisa
p3320
aVluise
p3321
aVluke
p3322
aVlula
p3323
aVlulu
p3324
aVluna
p3325
aVlupe
p3326
aVlupita
p3327
aVlura
p3328
aVlurlene
p3329
aVlurline
p3330
aVluther
p3331
aVluvenia
p3332
aVluz
p3333
aVlyda
p3334
aVlydia
p3335
aVlyla
p3336
aVlyle
p3337
aVlyman
p3338
aVlyn
p3339
aVlynda
p3340
aVlyndia
p3341
aVlee
p3342
aVlyndon
p3343
aVlyndsay
p3344
aVlyndsey
p3345
aVlynell
p3346
aVlynelle
p3347
aVlynette
p3348
aVlynn
p3349
aVlynna
p3350
aVlynne
p3351
aVlynnette
p3352
aVlynsey
p3353
aVlynwood
p3354
aVmabel
p3355
aVmabelle
p3356
aVmable
p3357
aVmac
p3358
aVmachelle
p3359
aVmacie
p3360
aVmack
p3361
aVmackenzie
p3362
aVmacy
p3363
aVmadalene
p3364
aVmadaline
p3365
aVmadalyn
p3366
aVmaddie
p3367
aVmade
p3368
aVmadelaine
p3369
aVmadeleine
p3370
aVmadelene
p3371
aVmadeline
p3372
aVmadelyn
p3373
aVmadge
p3374
aVmadie
p3375
aVmadison
p3376
aVmadlyn
p3377
aVmadonna
p3378
aVmae
p3379
aVmaegan
p3380
aVmafalda
p3381
aVmagali
p3382
aVmagaly
p3383
aVmagan
p3384
aVmagaret
p3385
aVmagda
p3386
aVmagdalen
p3387
aVmagdalena
p3388
aVmagdalene
p3389
aVmagen
p3390
aVmaggie
p3391
aVmagnolia
p3392
aVmahalia
p3393
aVmai
p3394
aVmaia
p3395
aVmaida
p3396
aVmaile
p3397
aVmaira
p3398
aVmaire
p3399
aVmaisha
p3400
aVmaisie
p3401
aVmajor
p3402
aVmajorie
p3403
aVmake
p3404
aVmakeda
p3405
aVmakes
p3406
aVmalcolm
p3407
aVmalcom
p3408
aVmalena
p3409
aVmalia
p3410
aVmalik
p3411
aVmalika
p3412
aVmalinda
p3413
aVmalisa
p3414
aVlexie
p3415
aVmalissa
p3416
aVmalka
p3417
aVmallie
p3418
aVmallory
p3419
aVmalorie
p3420
aVmamie
p3421
aVmammie
p3422
aVman
p3423
aVmana
p3424
aVmanda
p3425
aVmandi
p3426
aVmandie
p3427
aVmandy
p3428
aVmanie
p3429
aVmanual
p3430
aVmanuel
p3431
aVmanuela
p3432
aVmany
p3433
aVmaple
p3434
aVmara
p3435
aVmaragaret
p3436
aVmaragret
p3437
aVmaranda
p3438
aVmarc
p3439
aVmarcel
p3440
aVmarcela
p3441
aVmarcelina
p3442
aVmarceline
p3443
aVmarcelino
p3444
aVmarcell
p3445
aVmarcella
p3446
aVmarcelle
p3447
aVmarcellus
p3448
aVmarcelo
p3449
aVmarcene
p3450
aVmarchelle
p3451
aVmarcia
p3452
aVmarcie
p3453
aVmarcos
p3454
aVmarcus
p3455
aVmarcy
p3456
aVmaren
p3457
aVmarg
p3458
aVmargareta
p3459
aVmargarett
p3460
aVmargaretta
p3461
aVmargarette
p3462
aVmargarita
p3463
aVmargarite
p3464
aVmargarito
p3465
aVmargart
p3466
aVmargene
p3467
aVmargeret
p3468
aVmargert
p3469
aVmargery
p3470
aVmarget
p3471
aVmargherita
p3472
aVmargie
p3473
aVmargit
p3474
aVmargo
p3475
aVmargorie
p3476
aVmargret
p3477
aVmargrett
p3478
aVmarguerita
p3479
aVmarguerite
p3480
aVmargurite
p3481
aVmargy
p3482
aVmarhta
p3483
aVmari
p3484
aVmaria
p3485
aVloise
p3486
aVmariah
p3487
aVmariam
p3488
aVmarian
p3489
aVmariana
p3490
aVmarianela
p3491
aVmariann
p3492
aVmarianna
p3493
aVmarianne
p3494
aVmariano
p3495
aVmaribel
p3496
aVmaribeth
p3497
aVmarica
p3498
aVmaricela
p3499
aVmaricruz
p3500
aVmarie
p3501
aVmariel
p3502
aVmariela
p3503
aVmariella
p3504
aVmarietta
p3505
aVmariette
p3506
aVmariko
p3507
aVmarilee
p3508
aVmarilou
p3509
aVmarilu
p3510
aVmarilyn
p3511
aVmarilynn
p3512
aVmarin
p3513
aVmarina
p3514
aVmarinda
p3515
aVmarine
p3516
aVmario
p3517
aVmarion
p3518
aVlorina
p3519
aVmaris
p3520
aVlorine
p3521
aVmarisa
p3522
aVmarisela
p3523
aVmarisha
p3524
aVmarisol
p3525
aVmarissa
p3526
aVmarita
p3527
aVmaritza
p3528
aVmarivel
p3529
aVmarjory
p3530
aVmark
p3531
aVmarketta
p3532
aVmarkita
p3533
aVlouann
p3534
aVmarkus
p3535
aVmarla
p3536
aVmarlana
p3537
aVmarleen
p3538
aVmarlen
p3539
aVmarlena
p3540
aVmarlene
p3541
aVmarlin
p3542
aVmarline
p3543
aVmarlo
p3544
aVlouvenia
p3545
aVmarlon
p3546
aVmarlyn
p3547
aVmarlys
p3548
aVmarna
p3549
aVmarni
p3550
aVmarnie
p3551
aVmarquerite
p3552
aVmarquetta
p3553
aVmarquis
p3554
aVmarquita
p3555
aVmarquitta
p3556
aVmarry
p3557
aVmarsha
p3558
aVmarshall
p3559
aVmarth
p3560
aVmartha
p3561
aVluciana
p3562
aVmarti
p3563
aVmartin
p3564
aVmartina
p3565
aVmartine
p3566
aVmarty
p3567
aVlucile
p3568
aVmarva
p3569
aVmarvel
p3570
aVmarvella
p3571
aVlucinda
p3572
aVmarvin
p3573
aVmarvis
p3574
aVmarx
p3575
aVmary
p3576
aVmarya
p3577
aVmaryalice
p3578
aVmaryam
p3579
aVlue
p3580
aVmaryann
p3581
aVmaryanna
p3582
aVmaryanne
p3583
aVmarybelle
p3584
aVmarybeth
p3585
aVmaryellen
p3586
aVmaryetta
p3587
aVmaryjane
p3588
aVmaryjo
p3589
aVmaryland
p3590
aVmarylee
p3591
aVmarylin
p3592
aVmaryln
p3593
aVmarylou
p3594
aVmarylouise
p3595
aVmarylyn
p3596
aVmarylynn
p3597
aVmaryrose
p3598
aVmasako
p3599
aVmason
p3600
aVmatha
p3601
aVmathew
p3602
aVmathilda
p3603
aVmathilde
p3604
aVmatilda
p3605
aVmatilde
p3606
aVmatt
p3607
aVmatthew
p3608
aVmattie
p3609
aVmaud
p3610
aVmaude
p3611
aVlynetta
p3612
aVmaudie
p3613
aVmaura
p3614
aVmaureen
p3615
aVmaurice
p3616
aVmauricio
p3617
aVmaurine
p3618
aVmaurita
p3619
aVma
p3620
aVmauro
p3621
aVmavis
p3622
aVmax
p3623
aVmaxie
p3624
aVmaxima
p3625
aVmaximina
p3626
aVmaximo
p3627
aVmaxine
p3628
aVmaxwell
p3629
aVmaya
p3630
aVmaybe
p3631
aVmaybell
p3632
aVmaybelle
p3633
aVmaye
p3634
aVmayme
p3635
aVmaynard
p3636
aVmayola
p3637
aVmayra
p3638
aVmazie
p3639
aVmckenzie
p3640
aVmckinley
p3641
aVme
p3642
aVmeagan
p3643
aVmeaghan
p3644
aVmeantime
p3645
aVmeanwhile
p3646
aVmechelle
p3647
aVmeda
p3648
aVmee
p3649
aVmeg
p3650
aVmegan
p3651
aVmeggan
p3652
aVmeghan
p3653
aVmeghann
p3654
aVmei
p3655
aVmel
p3656
aVmelaine
p3657
aVmelani
p3658
aVmelania
p3659
aVmelanie
p3660
aVmelany
p3661
aVmelba
p3662
aVmelda
p3663
aVmelia
p3664
aVmelida
p3665
aVmelina
p3666
aVmelinda
p3667
aVmelisa
p3668
aVmelissa
p3669
aVmelissia
p3670
aVmelita
p3671
aVmellie
p3672
aVmellisa
p3673
aVmellissa
p3674
aVmelodee
p3675
aVmelodi
p3676
aVmelodie
p3677
aVmelody
p3678
aVmelonie
p3679
aVmelony
p3680
aVmelva
p3681
aVmalvina
p3682
aVmelvin
p3683
aVmelvina
p3684
aVmendy
p3685
aVmercedes
p3686
aVmercedez
p3687
aVmercy
p3688
aVmeredith
p3689
aVmeri
p3690
aVmerideth
p3691
aVmeridith
p3692
aVmerilyn
p3693
aVmerissa
p3694
aVmerle
p3695
aVmao
p3696
aVmerlene
p3697
aVmerlin
p3698
aVmerlyn
p3699
aVmerna
p3700
aVmerri
p3701
aVmerrie
p3702
aVmerrilee
p3703
aVmerrill
p3704
aVmarcelene
p3705
aVmerry
p3706
aVmertie
p3707
aVmervin
p3708
aVmeryl
p3709
aVmeta
p3710
aVmi
p3711
aVmia
p3712
aVmica
p3713
aVmicaela
p3714
aVmicah
p3715
aVmarci
p3716
aVmichael
p3717
aVmichaela
p3718
aVmarco
p3719
aVmichaele
p3720
aVmichal
p3721
aVmichale
p3722
aVmardell
p3723
aVmicheal
p3724
aVmichel
p3725
aVmargaret
p3726
aVmichele
p3727
aVmargarete
p3728
aVmichelina
p3729
aVmicheline
p3730
aVmichell
p3731
aVmichelle
p3732
aVmichiko
p3733
aVmickey
p3734
aVmicki
p3735
aVmarge
p3736
aVmickie
p3737
aVmiesha
p3738
aVmigdalia
p3739
aVmignon
p3740
aVmiguelina
p3741
aVmika
p3742
aVmikaela
p3743
aVmike
p3744
aVmikel
p3745
aVmiki
p3746
aVmargot
p3747
aVmikki
p3748
aVmilagro
p3749
aVmilagros
p3750
aVmilan
p3751
aVmilda
p3752
aVmildred
p3753
aVmiles
p3754
aVmilford
p3755
aVmilissa
p3756
aVmillard
p3757
aVmillie
p3758
aVmillion
p3759
aVmilly
p3760
aVmilo
p3761
aVmilton
p3762
aVmimi
p3763
aVmin
p3764
aVmina
p3765
aVminda
p3766
aVmindi
p3767
aVmindy
p3768
aVminerva
p3769
aVming
p3770
aVminh
p3771
aVminna
p3772
aVminnie
p3773
aVminta
p3774
aVmarielle
p3775
aVmiquel
p3776
aVmira
p3777
aVmiranda
p3778
aVmireille
p3779
aVmireya
p3780
aVmiriam
p3781
aVmirian
p3782
aVmirna
p3783
aVmirta
p3784
aVmirtha
p3785
aVmisha
p3786
aVmiss
p3787
aVmissy
p3788
aVmisti
p3789
aVmistie
p3790
aVmisty
p3791
aVmitch
p3792
aVmitchel
p3793
aVmitchell
p3794
aVmitsue
p3795
aVmitsuko
p3796
aVmittie
p3797
aVmarjorie
p3798
aVmitzi
p3799
aVmitzie
p3800
aVmiyoko
p3801
aVmodesto
p3802
aVmohamed
p3803
aVmohammad
p3804
aVmohammed
p3805
aVmoira
p3806
aVmollie
p3807
aVmolly
p3808
aVmoment
p3809
aVmona
p3810
aVmonet
p3811
aVmonica
p3812
aVmonika
p3813
aVmonique
p3814
aVmonnie
p3815
aVmonroe
p3816
aVmonserrate
p3817
aVmonte
p3818
aVmonty
p3819
aVmoon
p3820
aVmora
p3821
aVmore
p3822
aVmoreover
p3823
aVmorgan
p3824
aVmoriah
p3825
aVmorris
p3826
aVmarta
p3827
aVmorton
p3828
aVmose
p3829
aVmoses
p3830
aVmoshe
p3831
aVmost
p3832
aVmostly
p3833
aVmozell
p3834
aVmozella
p3835
aVmozelle
p3836
aVmr
p3837
aVmrs
p3838
aVmuch
p3839
aVmui
p3840
aVmuoi
p3841
aVmurray
p3842
aVmust
p3843
aVmy
p3844
aVmyesha
p3845
aVmyles
p3846
aVmyong
p3847
aVmyra
p3848
aVmyrl
p3849
aVmyrle
p3850
aVmyrna
p3851
aVmyron
p3852
aVmyrta
p3853
aVmyrtie
p3854
aVmyrtle
p3855
aVmyself
p3856
aVmyung
p3857
aVn
p3858
aVnada
p3859
aVnadene
p3860
aVnadia
p3861
aVnaida
p3862
aVnakesha
p3863
aVnakia
p3864
aVnakisha
p3865
aVnakita
p3866
aVnam
p3867
aVnamely
p3868
aVnan
p3869
aVnana
p3870
aVnancee
p3871
aVnancey
p3872
aVnanci
p3873
aVnancie
p3874
aVnancy
p3875
aVnanette
p3876
aVnannette
p3877
aVnannie
p3878
aVnaoma
p3879
aVnaomi
p3880
aVnapoleon
p3881
aVnarcisa
p3882
aVnatacha
p3883
aVnatalia
p3884
aVnatalie
p3885
aVnatalya
p3886
aVnatasha
p3887
aVnatashia
p3888
aVnathalie
p3889
aVnathanael
p3890
aVnathanial
p3891
aVnatisha
p3892
aVnatividad
p3893
aVnatosha
p3894
aVneal
p3895
aVnear
p3896
aVnecole
p3897
aVned
p3898
aVneda
p3899
aVnedra
p3900
aVneely
p3901
aVneida
p3902
aVneil
p3903
aVneither
p3904
aVnelda
p3905
aVnelia
p3906
aVnelida
p3907
aVnell
p3908
aVnella
p3909
aVnelle
p3910
aVnellie
p3911
aVnelly
p3912
aVnelson
p3913
aVnena
p3914
aVnenita
p3915
aVneoma
p3916
aVneomi
p3917
aVnereida
p3918
aVnerissa
p3919
aVnery
p3920
aVnestor
p3921
aVneta
p3922
aVnettie
p3923
aVneva
p3924
aVnevada
p3925
aVnever
p3926
aVnevertheless
p3927
aVneville
p3928
aVnew
p3929
aVnewton
p3930
aVnext
p3931
aVnga
p3932
aVngan
p3933
aVngoc
p3934
aVnguyet
p3935
aVnia
p3936
aVnichelle
p3937
aVnichol
p3938
aVnicholas
p3939
aVnichole
p3940
aVmelynda
p3941
aVnicholle
p3942
aVnick
p3943
aVnicki
p3944
aVnickie
p3945
aVnickole
p3946
aVnicky
p3947
aVnicol
p3948
aVnicola
p3949
aVnicolas
p3950
aVnicolasa
p3951
aVnicole
p3952
aVnicolette
p3953
aVnicolle
p3954
aVnida
p3955
aVnidia
p3956
aVniesha
p3957
aVnieves
p3958
aVnigel
p3959
aVniki
p3960
aVnikia
p3961
aVnikita
p3962
aVnikki
p3963
aVnikole
p3964
aVnila
p3965
aVnilda
p3966
aVnilsa
p3967
aVnina
p3968
aVnine
p3969
aVninety
p3970
aVmicha
p3971
aVninfa
p3972
aVnisha
p3973
aVnita
p3974
aVno
p3975
aVnoah
p3976
aVnoble
p3977
aVnobody
p3978
aVnobuko
p3979
aVnoe
p3980
aVnoel
p3981
aVnoelia
p3982
aVnoella
p3983
aVnoelle
p3984
aVnoemi
p3985
aVnola
p3986
aVnolan
p3987
aVnoma
p3988
aVnona
p3989
aVnone
p3990
aVmiguel
p3991
aVnonetheless
p3992
aVnoone
p3993
aVnor
p3994
aVnora
p3995
aVnorah
p3996
aVnorbert
p3997
aVnorberto
p3998
aVmila
p3999
aVnoreen
p4000
aVnoriko
p4001
aVnorine
p4002
aVnorma
p4003
aVnorman
p4004
aVnormand
p4005
aVnot
p4006
aVnothing
p4007
aVnova
p4008
aVmillicent
p4009
aVnovella
p4010
aVnow
p4011
aVnowhere
p4012
aVnu
p4013
aVnubia
p4014
aVnumbers
p4015
aVnydia
p4016
aVnyla
p4017
aVo
p4018
aVobdulia
p4019
aVocie
p4020
aVoctavia
p4021
aVoctavio
p4022
aVoda
p4023
aVodelia
p4024
aVodell
p4025
aVodessa
p4026
aVodette
p4027
aVodilia
p4028
aVodis
p4029
aVmirella
p4030
aVof
p4031
aVofelia
p4032
aVoff
p4033
aVoften
p4034
aVoh
p4035
aVola
p4036
aVolen
p4037
aVolene
p4038
aVoleta
p4039
aVolevia
p4040
aVolga
p4041
aVolimpia
p4042
aVolin
p4043
aVolinda
p4044
aVoliva
p4045
aVolive
p4046
aVoliver
p4047
aVolivia
p4048
aVollie
p4049
aVolympia
p4050
aVoma
p4051
aVmodesta
p4052
aVomar
p4053
aVomega
p4054
aVomer
p4055
aVomitted
p4056
aVon
p4057
aVmoises
p4058
aVona
p4059
aVonce
p4060
aVone
p4061
aVoneida
p4062
aVones
p4063
aVonie
p4064
aVonita
p4065
aVonly
p4066
aVonto
p4067
aVopal
p4068
aVophelia
p4069
aVor
p4070
aVoralee
p4071
aVoralia
p4072
aVord
p4073
aVoren
p4074
aVoretha
p4075
aVorlando
p4076
aVorpha
p4077
aVorval
p4078
aVorville
p4079
aVoscar
p4080
aVossie
p4081
aVosvaldo
p4082
aVoswaldo
p4083
aVotelia
p4084
aVmuriel
p4085
aVotha
p4086
aVother
p4087
aVothers
p4088
aVotherwise
p4089
aVotilia
p4090
aVotis
p4091
aVmyriam
p4092
aVotto
p4093
aVouida
p4094
aVour
p4095
aVours
p4096
aVourselves
p4097
aVmyrtice
p4098
aVout
p4099
aVmyrtis
p4100
aVover
p4101
aVowen
p4102
aVown
p4103
aVozell
p4104
aVozella
p4105
aVozie
p4106
aVnadine
p4107
aVp
p4108
aVpa
p4109
aVpablo
p4110
aVpage
p4111
aVpages
p4112
aVpaige
p4113
aVpalma
p4114
aVpalmer
p4115
aVpalmira
p4116
aVpamala
p4117
aVpamela
p4118
aVpamelia
p4119
aVpamella
p4120
aVpamila
p4121
aVpamula
p4122
aVpansy
p4123
aVpaola
p4124
aVparis
p4125
aVparker
p4126
aVpart
p4127
aVparthenia
p4128
aVparticia
p4129
aVpasquale
p4130
aVpasty
p4131
aVpat
p4132
aVpatience
p4133
aVnathan
p4134
aVpatria
p4135
aVpatrica
p4136
aVnathaniel
p4137
aVpatrice
p4138
aVpatricia
p4139
aVpatrina
p4140
aVpatsy
p4141
aVpatti
p4142
aVpattie
p4143
aVpatty
p4144
aVpaula
p4145
aVpaulene
p4146
aVpaulette
p4147
aVpauline
p4148
aVpaulita
p4149
aVpaz
p4150
aVpearl
p4151
aVpearle
p4152
aVpearlene
p4153
aVpearlie
p4154
aVpearline
p4155
aVpearly
p4156
aVpedro
p4157
aVpeg
p4158
aVpeggie
p4159
aVpeggy
p4160
aVpei
p4161
aVpenelope
p4162
aVpenney
p4163
aVpenni
p4164
aVpennie
p4165
aVpenny
p4166
aVper
p4167
aVpercy
p4168
aVperhaps
p4169
aVperla
p4170
aVperry
p4171
aVpete
p4172
aVpeter
p4173
aVpetra
p4174
aVpetrina
p4175
aVpetronila
p4176
aVphebe
p4177
aVphil
p4178
aVphilip
p4179
aVphillip
p4180
aVphillis
p4181
aVphilomena
p4182
aVphung
p4183
aVphuong
p4184
aVnickolas
p4185
aVphylicia
p4186
aVphylis
p4187
aVphyliss
p4188
aVpia
p4189
aVpiedad
p4190
aVpierre
p4191
aVping
p4192
aVpinkie
p4193
aVpiper
p4194
aVpok
p4195
aVpolly
p4196
aVporfirio
p4197
aVporsche
p4198
aVporsha
p4199
aVporter
p4200
aVportia
p4201
aVpp
p4202
aVprecious
p4203
aVpreston
p4204
aVpricilla
p4205
aVprince
p4206
aVprincess
p4207
aVpriscila
p4208
aVpriscilla
p4209
aVproud
p4210
aVprovidencia
p4211
aVprudence
p4212
aVq
p4213
aVqiana
p4214
aVqueen
p4215
aVqueenie
p4216
aVquentin
p4217
aVquiana
p4218
aVquincy
p4219
aVquinn
p4220
aVnohemi
p4221
aVquintin
p4222
aVquinton
p4223
aVquyen
p4224
aVr
p4225
aVrachael
p4226
aVrachal
p4227
aVracheal
p4228
aVrachel
p4229
aVrachele
p4230
aVnorene
p4231
aVrachell
p4232
aVrachelle
p4233
aVracquel
p4234
aVrae
p4235
aVraeann
p4236
aVnorris
p4237
aVraelene
p4238
aVrafael
p4239
aVrafaela
p4240
aVraguel
p4241
aVraina
p4242
aVraisa
p4243
aVraleigh
p4244
aVralph
p4245
aVramiro
p4246
aVramon
p4247
aVramona
p4248
aVramonita
p4249
aVran
p4250
aVrana
p4251
aVranae
p4252
aVranda
p4253
aVrandal
p4254
aVrandall
p4255
aVrandee
p4256
aVok
p4257
aVrandi
p4258
aVrandolph
p4259
aVranee
p4260
aVraphael
p4261
aVraquel
p4262
aVrashad
p4263
aVrasheeda
p4264
aVrashida
p4265
aVraul
p4266
aVraven
p4267
aVray
p4268
aVraye
p4269
aVrayford
p4270
aVraymon
p4271
aVraymond
p4272
aVraymonde
p4273
aVraymundo
p4274
aVrayna
p4275
aVre
p4276
aVrea
p4277
aVreagan
p4278
aVreatha
p4279
aVreba
p4280
aVrebbeca
p4281
aVrebbecca
p4282
aVora
p4283
aVrebeca
p4284
aVrebecca
p4285
aVrebecka
p4286
aVrebekah
p4287
aVrecent
p4288
aVrecently
p4289
aVreed
p4290
aVreena
p4291
aVref
p4292
aVrefs
p4293
aVrefugia
p4294
aVrefugio
p4295
aVregan
p4296
aVregena
p4297
aVregenia
p4298
aVreggie
p4299
aVregina
p4300
aVreginald
p4301
aVregine
p4302
aVreginia
p4303
aVreid
p4304
aVreiko
p4305
aVreina
p4306
aVreinaldo
p4307
aVreita
p4308
aVrelated
p4309
aVrema
p4310
aVremedios
p4311
aVremona
p4312
aVpam
p4313
aVrena
p4314
aVrenaldo
p4315
aVrenata
p4316
aVrenate
p4317
aVrenato
p4318
aVrenay
p4319
aVpandora
p4320
aVrenda
p4321
aVrenea
p4322
aVrenetta
p4323
aVrenita
p4324
aVreplied
p4325
aVresearch
p4326
aVressie
p4327
aVreta
p4328
aVretha
p4329
aVretta
p4330
aVreuben
p4331
aVreva
p4332
aVrex
p4333
aVreyes
p4334
aVpatrick
p4335
aVreyna
p4336
aVreynaldo
p4337
aVrhea
p4338
aVrheba
p4339
aVrhett
p4340
aVpaul
p4341
aVrhiannon
p4342
aVrhoda
p4343
aVpauletta
p4344
aVrhona
p4345
aVpaulina
p4346
aVrhonda
p4347
aVria
p4348
aVricardo
p4349
aVrich
p4350
aVrichard
p4351
aVrichelle
p4352
aVrichie
p4353
aVrick
p4354
aVrickey
p4355
aVricki
p4356
aVrickie
p4357
aVricky
p4358
aVrico
p4359
aVrigoberto
p4360
aVrikki
p4361
aVriley
p4362
aVrima
p4363
aVrina
p4364
aVrisa
p4365
aVrita
p4366
aVrivka
p4367
aVrobbi
p4368
aVrobbie
p4369
aVrobby
p4370
aVrobbyn
p4371
aVrobena
p4372
aVrobert
p4373
aVroberta
p4374
aVroberto
p4375
aVrobin
p4376
aVrobt
p4377
aVrobyn
p4378
aVrocco
p4379
aVphoebe
p4380
aVrochel
p4381
aVrochell
p4382
aVrochelle
p4383
aVrocio
p4384
aVrocky
p4385
aVphyllis
p4386
aVrod
p4387
aVroderick
p4388
aVrodger
p4389
aVpilar
p4390
aVrodney
p4391
aVrodolfo
p4392
aVrodrick
p4393
aVrodrigo
p4394
aVrogelio
p4395
aVroger
p4396
aVroland
p4397
aVrolanda
p4398
aVrolande
p4399
aVrolando
p4400
aVrolf
p4401
aVrolland
p4402
aVroma
p4403
aVromaine
p4404
aVroman
p4405
aVromana
p4406
aVromelia
p4407
aVromeo
p4408
aVromona
p4409
aVpura
p4410
aVron
p4411
aVrona
p4412
aVronald
p4413
aVroni
p4414
aVronna
p4415
aVronni
p4416
aVronnie
p4417
aVronny
p4418
aVroosevelt
p4419
aVrory
p4420
aVrosa
p4421
aVrosalba
p4422
aVrosalee
p4423
aVrosalia
p4424
aVrosalie
p4425
aVrosalind
p4426
aVrosalinda
p4427
aVrosaline
p4428
aVrosalva
p4429
aVrosalyn
p4430
aVrosamaria
p4431
aVrosamond
p4432
aVrosana
p4433
aVrosann
p4434
aVrosanna
p4435
aVrosanne
p4436
aVrosaria
p4437
aVrosario
p4438
aVrosaura
p4439
aVroscoe
p4440
aVrose
p4441
aVroseann
p4442
aVroseanna
p4443
aVroseanne
p4444
aVroselee
p4445
aVroselia
p4446
aVroseline
p4447
aVrosella
p4448
aVrandell
p4449
aVroselle
p4450
aVroselyn
p4451
aVrandy
p4452
aVrosemarie
p4453
aVrosemary
p4454
aVrosena
p4455
aVrosenda
p4456
aVrosendo
p4457
aVrosetta
p4458
aVrosette
p4459
aVrosia
p4460
aVrosie
p4461
aVrosina
p4462
aVrosio
p4463
aVraylene
p4464
aVroslyn
p4465
aVross
p4466
aVrossana
p4467
aVrossie
p4468
aVrosy
p4469
aVrowena
p4470
aVroxana
p4471
aVreanna
p4472
aVroxane
p4473
aVroxann
p4474
aVroxanna
p4475
aVroxanne
p4476
aVroxie
p4477
aVroy
p4478
aVroyal
p4479
aVroyce
p4480
aVreda
p4481
aVrozanne
p4482
aVrozella
p4483
aVruben
p4484
aVrubi
p4485
aVrubie
p4486
aVrubin
p4487
aVrubye
p4488
aVrudolf
p4489
aVrudolph
p4490
aVrudy
p4491
aVrueben
p4492
aVrufina
p4493
aVrufus
p4494
aVrun
p4495
aVrupert
p4496
aVrussel
p4497
aVrussell
p4498
aVrusty
p4499
aVruth
p4500
aVrutha
p4501
aVruthann
p4502
aVrenae
p4503
aVruthanne
p4504
aVruthe
p4505
aVruthie
p4506
aVryan
p4507
aVryann
p4508
aVs
p4509
aVrene
p4510
aVsabina
p4511
aVrenee
p4512
aVsabine
p4513
aVsabra
p4514
aVrenna
p4515
aVsabrina
p4516
aVsacha
p4517
aVsachiko
p4518
aVsade
p4519
aVsadie
p4520
aVsadye
p4521
aVsage
p4522
aVrey
p4523
aVsaid
p4524
aVsal
p4525
aVreynalda
p4526
aVsalena
p4527
aVsalina
p4528
aVsalley
p4529
aVsallie
p4530
aVsally
p4531
aVsalome
p4532
aVsalvador
p4533
aVsalvatore
p4534
aVsam
p4535
aVricarda
p4536
aVsamantha
p4537
aVsamara
p4538
aVsamatha
p4539
aVsame
p4540
aVsamella
p4541
aVsamira
p4542
aVsammie
p4543
aVsammy
p4544
aVsamual
p4545
aVsamuel
p4546
aVsana
p4547
aVsanda
p4548
aVsandee
p4549
aVsandi
p4550
aVsandie
p4551
aVsandra
p4552
aVsandy
p4553
aVsanford
p4554
aVriva
p4555
aVsang
p4556
aVrob
p4557
aVsanjuana
p4558
aVsanjuanita
p4559
aVrobbin
p4560
aVsanora
p4561
aVsanta
p4562
aVsantana
p4563
aVsantiago
p4564
aVsanto
p4565
aVsantos
p4566
aVsara
p4567
aVsarah
p4568
aVsarai
p4569
aVsaran
p4570
aVsari
p4571
aVsarina
p4572
aVsarita
p4573
aVsasha
p4574
aVsaturnina
p4575
aVsau
p4576
aVsaul
p4577
aVsaundra
p4578
aVsavanna
p4579
aVsay
p4580
aVscarlet
p4581
aVscarlett
p4582
aVscot
p4583
aVscott
p4584
aVscottie
p4585
aVscotty
p4586
aVsean
p4587
aVsearch
p4588
aVseason
p4589
aVsebastian
p4590
aVsebrina
p4591
aVsec
p4592
aVsection
p4593
aVsee
p4594
aVseem
p4595
aVseema
p4596
aVseemed
p4597
aVseeming
p4598
aVseems
p4599
aVronda
p4600
aVselena
p4601
aVselene
p4602
aVselina
p4603
aVselma
p4604
aVsena
p4605
aVsenaida
p4606
aVseptember
p4607
aVserafina
p4608
aVserena
p4609
aVsergio
p4610
aVserina
p4611
aVserita
p4612
aVrosalina
p4613
aVserver
p4614
aVseth
p4615
aVseven
p4616
aVseventy
p4617
aVseveral
p4618
aVseymour
p4619
aVsha
p4620
aVshad
p4621
aVshae
p4622
aVshaina
p4623
aVshakia
p4624
aVshakita
p4625
aVshala
p4626
aVshalanda
p4627
aVshall
p4628
aVshalon
p4629
aVshalonda
p4630
aVshameka
p4631
aVshamika
p4632
aVshan
p4633
aVshana
p4634
aVshanae
p4635
aVshanda
p4636
aVshandi
p4637
aVshandra
p4638
aVshane
p4639
aVshaneka
p4640
aVshanel
p4641
aVshanell
p4642
aVshanelle
p4643
aVshanice
p4644
aVshanika
p4645
aVshaniqua
p4646
aVshanita
p4647
aVshannan
p4648
aVshannon
p4649
aVrosita
p4650
aVshanon
p4651
aVshanta
p4652
aVshantae
p4653
aVshantay
p4654
aVshante
p4655
aVshantel
p4656
aVshantell
p4657
aVshantelle
p4658
aVshanti
p4659
aVshaquana
p4660
aVshaquita
p4661
aVshara
p4662
aVroxy
p4663
aVsharan
p4664
aVsharda
p4665
aVsharee
p4666
aVsharell
p4667
aVsharen
p4668
aVshari
p4669
aVsharice
p4670
aVsharie
p4671
aVsharika
p4672
aVruby
p4673
aVsharilyn
p4674
aVsharla
p4675
aVsharleen
p4676
aVsharlene
p4677
aVsharmaine
p4678
aVsharolyn
p4679
aVsharon
p4680
aVsharri
p4681
aVruss
p4682
aVsharyl
p4683
aVsharyn
p4684
aVshasta
p4685
aVshaun
p4686
aVshauna
p4687
aVshaunda
p4688
aVshaunna
p4689
aVshaunta
p4690
aVshaunte
p4691
aVshavon
p4692
aVshavonda
p4693
aVshavonne
p4694
aVshawana
p4695
aVshawanda
p4696
aVshawanna
p4697
aVshawn
p4698
aVshawnda
p4699
aVshawnee
p4700
aVshawnna
p4701
aVshawnta
p4702
aVshay
p4703
aVshayla
p4704
aVshayna
p4705
aVshayne
p4706
aVshe
p4707
aVshea
p4708
aVsheba
p4709
aVshed
p4710
aVsheena
p4711
aVsheila
p4712
aVsheilah
p4713
aVshela
p4714
aVshelba
p4715
aVshelby
p4716
aVsheldon
p4717
aVshelia
p4718
aVshell
p4719
aVshella
p4720
aVshelley
p4721
aVshelli
p4722
aVshellie
p4723
aVshelly
p4724
aVshemeka
p4725
aVshemika
p4726
aVshena
p4727
aVshenika
p4728
aVshenita
p4729
aVshenna
p4730
aVshera
p4731
aVsheree
p4732
aVsherell
p4733
aVsheri
p4734
aVsherice
p4735
aVsheridan
p4736
aVsherie
p4737
aVsantina
p4738
aVsherika
p4739
aVsherill
p4740
aVsherilyn
p4741
aVsherise
p4742
aVsherita
p4743
aVsherlene
p4744
aVsherley
p4745
aVsherly
p4746
aVsherlyn
p4747
aVsherman
p4748
aVsheron
p4749
aVsherrell
p4750
aVsherri
p4751
aVsherrie
p4752
aVsherril
p4753
aVsavannah
p4754
aVsherrill
p4755
aVsherron
p4756
aVsherry
p4757
aVsherryl
p4758
aVsherwood
p4759
aVshery
p4760
aVsheryl
p4761
aVsheryll
p4762
aVshes
p4763
aVshiela
p4764
aVshila
p4765
aVshiloh
p4766
aVshin
p4767
aVshira
p4768
aVshirely
p4769
aVshirl
p4770
aVshirlee
p4771
aVshirleen
p4772
aVshirlene
p4773
aVshirley
p4774
aVshirly
p4775
aVshizue
p4776
aVshizuko
p4777
aVshon
p4778
aVshona
p4779
aVsetsuko
p4780
aVshonda
p4781
aVshondra
p4782
aVshonna
p4783
aVshonta
p4784
aVshoshana
p4785
aVshu
p4786
aVshakira
p4787
aVshyla
p4788
aVsibyl
p4789
aVsid
p4790
aVsidney
p4791
aVsierra
p4792
aVsigne
p4793
aVsigrid
p4794
aVsilas
p4795
aVsilva
p4796
aVsilvana
p4797
aVsilvia
p4798
aVsima
p4799
aVsimon
p4800
aVsimona
p4801
aVsimone
p4802
aVsimonne
p4803
aVsina
p4804
aVsince
p4805
aVshani
p4806
aVsindy
p4807
aVsiobhan
p4808
aVsirena
p4809
aVsiu
p4810
aVshanna
p4811
aVsix
p4812
aVsixty
p4813
aVskye
p4814
aVslyvia
p4815
aVso
p4816
aVsocorro
p4817
aVsofia
p4818
aVsoila
p4819
aVsol
p4820
aVsolange
p4821
aVsoledad
p4822
aVsolomon
p4823
aVsome
p4824
aVsomehow
p4825
aVsomeone
p4826
aVsomer
p4827
aVsomething
p4828
aVsometime
p4829
aVsometimes
p4830
aVsomewhere
p4831
aVsommer
p4832
aVson
p4833
aVsona
p4834
aVsharita
p4835
aVsondra
p4836
aVsong
p4837
aVsonia
p4838
aVsonja
p4839
aVsonny
p4840
aVsonya
p4841
aVsharonda
p4842
aVsoo
p4843
aVsharron
p4844
aVsook
p4845
aVsoon
p4846
aVsophia
p4847
aVsophie
p4848
aVsoraya
p4849
aVsparkle
p4850
aVspencer
p4851
aVspring
p4852
aVstacee
p4853
aVstacey
p4854
aVstaci
p4855
aVstacia
p4856
aVstacie
p4857
aVstacy
p4858
aVstanford
p4859
aVshawna
p4860
aVstanley
p4861
aVstanton
p4862
aVstar
p4863
aVstarla
p4864
aVstarr
p4865
aVstefan
p4866
aVstefani
p4867
aVstefania
p4868
aVstefanie
p4869
aVstefany
p4870
aVsteffanie
p4871
aVstella
p4872
aVstepanie
p4873
aVstephan
p4874
aVstephane
p4875
aVstephani
p4876
aVstephania
p4877
aVstephanie
p4878
aVstephen
p4879
aVstephenie
p4880
aVstephine
p4881
aVstephnie
p4882
aVsterling
p4883
aVshelton
p4884
aVsteve
p4885
aVsteven
p4886
aVstevie
p4887
aVstewart
p4888
aVstill
p4889
aVstop
p4890
aVstormy
p4891
aVstuart
p4892
aVsuanne
p4893
aVsuch
p4894
aVsudie
p4895
aVsue
p4896
aVsueann
p4897
aVsuellen
p4898
aVsuk
p4899
aVsulema
p4900
aVsumiko
p4901
aVsummer
p4902
aVsun
p4903
aVsunday
p4904
aVsung
p4905
aVsunni
p4906
aVsunny
p4907
aVsunshine
p4908
aVsusan
p4909
aVsusana
p4910
aVsusann
p4911
aVsusanna
p4912
aVsusannah
p4913
aVsusanne
p4914
aVsusie
p4915
aVsusy
p4916
aVsuzan
p4917
aVsuzann
p4918
aVsuzanna
p4919
aVsuzanne
p4920
aVsuzette
p4921
aVsuzi
p4922
aVsuzy
p4923
aVsvetlana
p4924
aVsybil
p4925
aVsyble
p4926
aVsydney
p4927
aVsylvester
p4928
aVsylvia
p4929
aVsylvie
p4930
aVsynthia
p4931
aVsyreeta
p4932
aVt
p4933
aVta
p4934
aVtabetha
p4935
aVtabitha
p4936
aVtad
p4937
aVtai
p4938
aVtaina
p4939
aVtaisha
p4940
aVtajuana
p4941
aVtakako
p4942
aVtaking
p4943
aVtakisha
p4944
aVtalia
p4945
aVtalisha
p4946
aVtalitha
p4947
aVtama
p4948
aVtamar
p4949
aVtamara
p4950
aVtamatha
p4951
aVtambra
p4952
aVtameika
p4953
aVtameka
p4954
aVtamekia
p4955
aVtamela
p4956
aVtamera
p4957
aVtamesha
p4958
aVtami
p4959
aVtamica
p4960
aVtamie
p4961
aVtamiko
p4962
aVtamisha
p4963
aVsixta
p4964
aVtammara
p4965
aVtammera
p4966
aVtammi
p4967
aVtammie
p4968
aVtammy
p4969
aVtana
p4970
aVtandra
p4971
aVtandy
p4972
aVtaneka
p4973
aVtanesha
p4974
aVtangela
p4975
aVtania
p4976
aVtanika
p4977
aVtanja
p4978
aVtanna
p4979
aVtanner
p4980
aVtara
p4981
aVtarah
p4982
aVtaren
p4983
aVtarra
p4984
aVtarsha
p4985
aVtaryn
p4986
aVtasha
p4987
aVtashia
p4988
aVtashina
p4989
aVtasia
p4990
aVtatiana
p4991
aVtatum
p4992
aVtatyana
p4993
aVtaunya
p4994
aVtawana
p4995
aVtawanda
p4996
aVtawanna
p4997
aVtawna
p4998
aVtawnya
p4999
aVstan
p5000
aVtaylor
p5001
aVtayna
p5002
aVted
p5003
aVteddy
p5004
aVtegan
p5005
aVtell
p5006
aVstasia
p5007
aVtelma
p5008
aVtemeka
p5009
aVtemika
p5010
aVtempie
p5011
aVtemple
p5012
aVten
p5013
aVtena
p5014
aVtenesha
p5015
aVstephaine
p5016
aVtenisha
p5017
aVtennie
p5018
aVtennille
p5019
aVteodora
p5020
aVteodoro
p5021
aVstephany
p5022
aVteofila
p5023
aVtequila
p5024
aVtera
p5025
aVtereasa
p5026
aVterence
p5027
aVteresa
p5028
aVteresia
p5029
aVteresita
p5030
aVteressa
p5031
aVteri
p5032
aVterica
p5033
aVsu
p5034
aVterina
p5035
aVterisa
p5036
aVterra
p5037
aVterrance
p5038
aVterrell
p5039
aVterrence
p5040
aVterresa
p5041
aVterri
p5042
aVterrie
p5043
aVterrilyn
p5044
aVterry
p5045
aVtesha
p5046
aVtessa
p5047
aVtessie
p5048
aVthad
p5049
aVthaddeus
p5050
aVthalia
p5051
aVthan
p5052
aVthanh
p5053
aVthao
p5054
aVthat
p5055
aVthatll
p5056
aVthats
p5057
aVthatve
p5058
aVthe
p5059
aVtheda
p5060
aVtheir
p5061
aVthelma
p5062
aVthem
p5063
aVsuzie
p5064
aVthemselves
p5065
aVthen
p5066
aVthence
p5067
aVtheo
p5068
aVtheodora
p5069
aVtheodore
p5070
aVtheola
p5071
aVthereafter
p5072
aVthereby
p5073
aVthered
p5074
aVtherefore
p5075
aVtabatha
p5076
aVtherein
p5077
aVtherell
p5078
aVtherere
p5079
aVtheres
p5080
aVtheresa
p5081
aVtherese
p5082
aVtheressa
p5083
aVthereupon
p5084
aVthereve
p5085
aVtheron
p5086
aVthersa
p5087
aVthese
p5088
aVtam
p5089
aVtheyd
p5090
aVtamala
p5091
aVtheyll
p5092
aVtheyre
p5093
aVtheyve
p5094
aVthi
p5095
aVthing
p5096
aVthink
p5097
aVthirty
p5098
aVthis
p5099
aVthomas
p5100
aVthomasena
p5101
aVthomasina
p5102
aVthomasine
p5103
aVthora
p5104
aVtamika
p5105
aVthose
p5106
aVthough
p5107
aVthought
p5108
aVthousand
p5109
aVthresa
p5110
aVthrough
p5111
aVthroughout
p5112
aVtamra
p5113
aVthru
p5114
aVthu
p5115
aVthurman
p5116
aVthus
p5117
aVthuy
p5118
aVtia
p5119
aVtiana
p5120
aVtianna
p5121
aVtanisha
p5122
aVtiara
p5123
aVtien
p5124
aVtiera
p5125
aVtanya
p5126
aVtierra
p5127
aVtiesha
p5128
aVtifany
p5129
aVtari
p5130
aVtiffaney
p5131
aVtiffani
p5132
aVtiffanie
p5133
aVtiffany
p5134
aVtiffiny
p5135
aVtijuana
p5136
aVtil
p5137
aVtilda
p5138
aVtill
p5139
aVtillie
p5140
aVtim
p5141
aVtimika
p5142
aVtimmy
p5143
aVtimothy
p5144
aVtina
p5145
aVtawny
p5146
aVtinisha
p5147
aVtiny
p5148
aVtip
p5149
aVtisa
p5150
aVtish
p5151
aVteena
p5152
aVtisha
p5153
aVteisha
p5154
aVtitus
p5155
aVto
p5156
aVtobi
p5157
aVtobias
p5158
aVtobie
p5159
aVtoby
p5160
aVtoccara
p5161
aVtod
p5162
aVtogether
p5163
aVtoi
p5164
aVtold
p5165
aVtom
p5166
aVtomas
p5167
aVtomasa
p5168
aVtomeka
p5169
aVtomi
p5170
aVtomika
p5171
aVtomiko
p5172
aVterese
p5173
aVtommie
p5174
aVtommy
p5175
aVtommye
p5176
aVtomoko
p5177
aVtona
p5178
aVtonda
p5179
aVtonette
p5180
aVtoney
p5181
aVtonia
p5182
aVtonie
p5183
aVtonisha
p5184
aVtonita
p5185
aVtonja
p5186
aVtony
p5187
aVtonya
p5188
aVtoo
p5189
aVtora
p5190
aVtess
p5191
aVtori
p5192
aVtorie
p5193
aVtorri
p5194
aVtorrie
p5195
aVtory
p5196
aVtosha
p5197
aVtoshia
p5198
aVthea
p5199
aVtoshiko
p5200
aVtova
p5201
aVtowanda
p5202
aVtowards
p5203
aVtoya
p5204
aVtracee
p5205
aVtraci
p5206
aVtracie
p5207
aVtheresia
p5208
aVtracy
p5209
aVtran
p5210
aVtrang
p5211
aVtravis
p5212
aVtreasa
p5213
aVtreena
p5214
aVtrena
p5215
aVtrent
p5216
aVtrenton
p5217
aVtresa
p5218
aVtressa
p5219
aVtressie
p5220
aVtreva
p5221
aVtrevor
p5222
aVtrey
p5223
aVtricia
p5224
aVtrillion
p5225
aVtrina
p5226
aVtrinh
p5227
aVtrinidad
p5228
aVtrinity
p5229
aVtrisha
p5230
aVtrista
p5231
aVtristan
p5232
aVtroy
p5233
aVtrudi
p5234
aVtrudie
p5235
aVtrudy
p5236
aVtrula
p5237
aVtruman
p5238
aVtry
p5239
aVtu
p5240
aVtuan
p5241
aVtula
p5242
aVtuyet
p5243
aVtwana
p5244
aVtwanda
p5245
aVtwanna
p5246
aVtwenty
p5247
aVtwila
p5248
aVtwo
p5249
aVtwyla
p5250
aVty
p5251
aVtyesha
p5252
aVtyisha
p5253
aVtyler
p5254
aVtynisha
p5255
aVtodd
p5256
aVtyra
p5257
aVtyree
p5258
aVtyron
p5259
aVtyrone
p5260
aVtyson
p5261
aVu
p5262
aVulrike
p5263
aVulysses
p5264
aVun
p5265
aVuna
p5266
aVunder
p5267
aVunless
p5268
aVunlike
p5269
aVuntil
p5270
aVunto
p5271
aVup
p5272
aVtoni
p5273
aVupon
p5274
aVursula
p5275
aVus
p5276
aVused
p5277
aVusha
p5278
aVusing
p5279
aVute
p5280
aVv
p5281
aVvada
p5282
aVval
p5283
aVvalarie
p5284
aVvalda
p5285
aVvalencia
p5286
aVvalene
p5287
aVvalentin
p5288
aVvalentina
p5289
aVvalentine
p5290
aVvaleri
p5291
aVvaleria
p5292
aVvalerie
p5293
aVtracey
p5294
aVvalery
p5295
aVvalorie
p5296
aVvalrie
p5297
aVvan
p5298
aVvanda
p5299
aVvanesa
p5300
aVvanessa
p5301
aVvanetta
p5302
aVvania
p5303
aVvanita
p5304
aVvanna
p5305
aVvannesa
p5306
aVvannessa
p5307
aVvashti
p5308
aVvasiliki
p5309
aVvaughn
p5310
aVve
p5311
aVveda
p5312
aVvelda
p5313
aVvelia
p5314
aVvella
p5315
aVvelma
p5316
aVtrish
p5317
aVvelva
p5318
aVvelvet
p5319
aVvena
p5320
aVvenessa
p5321
aVvenetta
p5322
aVvenice
p5323
aVvenita
p5324
aVvennie
p5325
aVvenus
p5326
aVveola
p5327
aVvera
p5328
aVverda
p5329
aVverdell
p5330
aVverdie
p5331
aVverena
p5332
aVvergie
p5333
aVverla
p5334
aVverlene
p5335
aVverlie
p5336
aVverline
p5337
aVvern
p5338
aVverna
p5339
aVvernell
p5340
aVvernetta
p5341
aVvernia
p5342
aVtyrell
p5343
aVvernice
p5344
aVvernie
p5345
aVvernita
p5346
aVula
p5347
aVvernon
p5348
aVverona
p5349
aVveronica
p5350
aVveronika
p5351
aVveronique
p5352
aVversie
p5353
aVvertie
p5354
aVvery
p5355
aVvesta
p5356
aVveta
p5357
aVvi
p5358
aVvia
p5359
aVvicenta
p5360
aVvicente
p5361
aVvickey
p5362
aVvickie
p5363
aVvicky
p5364
aVvictor
p5365
aVvictoria
p5366
aVvida
p5367
aVvallie
p5368
aVviki
p5369
aVvikki
p5370
aVvilma
p5371
aVvance
p5372
aVvina
p5373
aVvince
p5374
aVvincent
p5375
aVvincenza
p5376
aVvincenzo
p5377
aVvinita
p5378
aVvinnie
p5379
aVviola
p5380
aVviolet
p5381
aVvioleta
p5382
aVviolette
p5383
aVvirgen
p5384
aVvirgie
p5385
aVvirgil
p5386
aVvirgilio
p5387
aVvirgina
p5388
aVvirginia
p5389
aVvita
p5390
aVvito
p5391
aVviva
p5392
aVvivan
p5393
aVvivian
p5394
aVviviana
p5395
aVvivien
p5396
aVvivienne
p5397
aVvol
p5398
aVvols
p5399
aVvon
p5400
aVvoncile
p5401
aVvonda
p5402
aVvonnie
p5403
aVvs
p5404
aVw
p5405
aVwade
p5406
aVwai
p5407
aVwaldo
p5408
aVwalker
p5409
aVwallace
p5410
aVwally
p5411
aVwalter
p5412
aVwalton
p5413
aVwaltraud
p5414
aVwan
p5415
aVwanda
p5416
aVwaneta
p5417
aVwanetta
p5418
aVwanita
p5419
aVward
p5420
aVwarner
p5421
aVwarren
p5422
aVwas
p5423
aVwasnt
p5424
aVwava
p5425
aVway
p5426
aVwaylon
p5427
aVwayne
p5428
aVwe
p5429
aVwed
p5430
aVvicki
p5431
aVwei
p5432
aVweldon
p5433
aVwell
p5434
aVwen
p5435
aVvictorina
p5436
aVwendell
p5437
aVwendi
p5438
aVwendie
p5439
aVwendolyn
p5440
aVwendy
p5441
aVwenona
p5442
aVwent
p5443
aVwere
p5444
aVwerent
p5445
aVwerner
p5446
aVwes
p5447
aVwesley
p5448
aVweston
p5449
aVweve
p5450
aVwhat
p5451
aVwhatever
p5452
aVwhatll
p5453
aVwhats
p5454
aVwhatve
p5455
aVwhen
p5456
aVwhence
p5457
aVwhenever
p5458
aVwhere
p5459
aVwhereafter
p5460
aVwhereas
p5461
aVwhereby
p5462
aVwherein
p5463
aVwheres
p5464
aVwhereupon
p5465
aVwherever
p5466
aVwhether
p5467
aVwhich
p5468
aVwhile
p5469
aVwhim
p5470
aVwhither
p5471
aVwhitley
p5472
aVwhitney
p5473
aVwho
p5474
aVwhod
p5475
aVwhoever
p5476
aVwhole
p5477
aVwholl
p5478
aVwhom
p5479
aVwhomever
p5480
aVwhos
p5481
aVwhose
p5482
aVwhy
p5483
aVwilber
p5484
aVwilbert
p5485
aVwilbur
p5486
aVwilburn
p5487
aVwilda
p5488
aVwiley
p5489
aVwilford
p5490
aVwilfred
p5491
aVwilfredo
p5492
aVwilhelmina
p5493
aVwilhemina
p5494
aVwill
p5495
aVwilla
p5496
aVwillard
p5497
aVwillena
p5498
aVwillene
p5499
aVwilletta
p5500
aVwillette
p5501
aVwillia
p5502
aVwilliam
p5503
aVwilliams
p5504
aVwillian
p5505
aVwillie
p5506
aVwilliemae
p5507
aVwillis
p5508
aVwillodean
p5509
aVwillow
p5510
aVwilly
p5511
aVwilma
p5512
aVwilmer
p5513
aVwilson
p5514
aVwilton
p5515
aVwindy
p5516
aVwinford
p5517
aVwinfred
p5518
aVwinifred
p5519
aVwinnie
p5520
aVwinnifred
p5521
aVwinona
p5522
aVwinston
p5523
aVwinter
p5524
aVwith
p5525
aVwithin
p5526
aVwithout
p5527
aVwm
p5528
aVwonda
p5529
aVwont
p5530
aVwoodrow
p5531
aVwords
p5532
aVwouldnt
p5533
aVwyatt
p5534
aVwynell
p5535
aVwynona
p5536
aVx
p5537
aVxavier
p5538
aVxenia
p5539
aVxiao
p5540
aVxiomara
p5541
aVxochitl
p5542
aVxuan
p5543
aVy
p5544
aVyadira
p5545
aVyaeko
p5546
aVyael
p5547
aVyahaira
p5548
aVyajaira
p5549
aVyan
p5550
aVyang
p5551
aVyanira
p5552
aVyasmin
p5553
aVyasmine
p5554
aVyasuko
p5555
aVyee
p5556
aVyelena
p5557
aVyen
p5558
aVyer
p5559
aVyes
p5560
aVyesenia
p5561
aVyessenia
p5562
aVyet
p5563
aVyetta
p5564
aVyevette
p5565
aVyi
p5566
aVying
p5567
aVyoko
p5568
aVyolanda
p5569
aVyolande
p5570
aVyolando
p5571
aVyolonda
p5572
aVyon
p5573
aVyong
p5574
aVyoshie
p5575
aVyoshiko
p5576
aVyou
p5577
aVyoud
p5578
aVyoulanda
p5579
aVyoull
p5580
aVyoung
p5581
aVyour
p5582
aVyoure
p5583
aVyours
p5584
aVyourself
p5585
aVyourselves
p5586
aVyouve
p5587
aVyu
p5588
aVyuette
p5589
aVyuk
p5590
aVyuki
p5591
aVyukiko
p5592
aVyuko
p5593
aVyulanda
p5594
aVyun
p5595
aVyung
p5596
aVyuonne
p5597
aVyuri
p5598
aVyuriko
p5599
aVyvette
p5600
aVyvone
p5601
aVyvonne
p5602
aVz
p5603
aVzachariah
p5604
aVzachary
p5605
aVzachery
p5606
aVzack
p5607
aVzackary
p5608
aVzada
p5609
aVzaida
p5610
aVzana
p5611
aVzandra
p5612
aVzane
p5613
aVzelda
p5614
aVzella
p5615
aVzelma
p5616
aVzena
p5617
aVzenaida
p5618
aVzenia
p5619
aVzenobia
p5620
aVzetta
p5621
aVzina
p5622
aVzita
p5623
aVzoe
p5624
aVzofia
p5625
aVzoila
p5626
aVzola
p5627
aVzona
p5628
aVzonia
p5629
aVzora
p5630
aVzoraida
p5631
aVzula
p5632
aVzulema
p5633
aVzulma
p5634
as.